
777_Allfunction.elf:     file format elf32-avr

Sections:
Idx Name          Size      VMA       LMA       File off  Algn
  0 .data         000001fe  00800100  00002384  00002418  2**0
                  CONTENTS, ALLOC, LOAD, DATA
  1 .text         00002384  00000000  00000000  00000094  2**1
                  CONTENTS, ALLOC, LOAD, READONLY, CODE
  2 .bss          0000004b  008002fe  008002fe  00002616  2**0
                  ALLOC
  3 .stab         000027e4  00000000  00000000  00002618  2**2
                  CONTENTS, READONLY, DEBUGGING
  4 .stabstr      00001385  00000000  00000000  00004dfc  2**0
                  CONTENTS, READONLY, DEBUGGING
  5 .debug_aranges 000000a0  00000000  00000000  00006181  2**0
                  CONTENTS, READONLY, DEBUGGING
  6 .debug_pubnames 000000e4  00000000  00000000  00006221  2**0
                  CONTENTS, READONLY, DEBUGGING
  7 .debug_info   00000ea7  00000000  00000000  00006305  2**0
                  CONTENTS, READONLY, DEBUGGING
  8 .debug_abbrev 00000861  00000000  00000000  000071ac  2**0
                  CONTENTS, READONLY, DEBUGGING
  9 .debug_line   000007f2  00000000  00000000  00007a0d  2**0
                  CONTENTS, READONLY, DEBUGGING
 10 .debug_frame  000000a0  00000000  00000000  00008200  2**2
                  CONTENTS, READONLY, DEBUGGING
 11 .debug_str    0000022f  00000000  00000000  000082a0  2**0
                  CONTENTS, READONLY, DEBUGGING
 12 .debug_loc    000003ce  00000000  00000000  000084cf  2**0
                  CONTENTS, READONLY, DEBUGGING
 13 .debug_ranges 00000050  00000000  00000000  0000889d  2**0
                  CONTENTS, READONLY, DEBUGGING

Disassembly of section .text:

00000000 <__vectors>:
       0:	0c 94 fe 00 	jmp	0x1fc	; 0x1fc <__ctors_end>
       4:	0c 94 1b 01 	jmp	0x236	; 0x236 <__bad_interrupt>
       8:	0c 94 1b 01 	jmp	0x236	; 0x236 <__bad_interrupt>
       c:	0c 94 1b 01 	jmp	0x236	; 0x236 <__bad_interrupt>
      10:	0c 94 1b 01 	jmp	0x236	; 0x236 <__bad_interrupt>
      14:	0c 94 1b 01 	jmp	0x236	; 0x236 <__bad_interrupt>
      18:	0c 94 1b 01 	jmp	0x236	; 0x236 <__bad_interrupt>
      1c:	0c 94 1b 01 	jmp	0x236	; 0x236 <__bad_interrupt>
      20:	0c 94 1b 01 	jmp	0x236	; 0x236 <__bad_interrupt>
      24:	0c 94 1b 01 	jmp	0x236	; 0x236 <__bad_interrupt>
      28:	0c 94 1b 01 	jmp	0x236	; 0x236 <__bad_interrupt>
      2c:	0c 94 1b 01 	jmp	0x236	; 0x236 <__bad_interrupt>
      30:	0c 94 1b 01 	jmp	0x236	; 0x236 <__bad_interrupt>
      34:	0c 94 1b 01 	jmp	0x236	; 0x236 <__bad_interrupt>
      38:	0c 94 1b 01 	jmp	0x236	; 0x236 <__bad_interrupt>
      3c:	0c 94 1b 01 	jmp	0x236	; 0x236 <__bad_interrupt>
      40:	0c 94 1b 01 	jmp	0x236	; 0x236 <__bad_interrupt>
      44:	0c 94 1b 01 	jmp	0x236	; 0x236 <__bad_interrupt>
      48:	0c 94 1e 08 	jmp	0x103c	; 0x103c <__vector_18>
      4c:	0c 94 4a 08 	jmp	0x1094	; 0x1094 <__vector_19>
      50:	0c 94 1b 01 	jmp	0x236	; 0x236 <__bad_interrupt>
      54:	0c 94 1b 01 	jmp	0x236	; 0x236 <__bad_interrupt>
      58:	0c 94 1b 01 	jmp	0x236	; 0x236 <__bad_interrupt>
      5c:	0c 94 1b 01 	jmp	0x236	; 0x236 <__bad_interrupt>
      60:	0c 94 1b 01 	jmp	0x236	; 0x236 <__bad_interrupt>
      64:	0c 94 1b 01 	jmp	0x236	; 0x236 <__bad_interrupt>

00000068 <port_to_mode_PGM>:
      68:	00 00 00 00 24 00 27 00 2a 00                       ....$.'.*.

00000072 <port_to_output_PGM>:
      72:	00 00 00 00 25 00 28 00 2b 00                       ....%.(.+.

0000007c <port_to_input_PGM>:
      7c:	00 00 00 00 23 00 26 00 29 00                       ....#.&.).

00000086 <digital_pin_to_port_PGM>:
      86:	04 04 04 04 04 04 04 04 02 02 02 02 02 02 03 03     ................
      96:	03 03 03 03                                         ....

0000009a <digital_pin_to_bit_mask_PGM>:
      9a:	01 02 04 08 10 20 40 80 01 02 04 08 10 20 01 02     ..... @...... ..
      aa:	04 08 10 20                                         ... 

000000ae <LcdCustomChar>:
      ae:	00 1f 00 00 00 00 1f 00 00 1f 10 10 10 10 1f 00     ................
      be:	00 1f 18 18 18 18 1f 00 00 1f 1c 1c 1c 1c 1f 00     ................
      ce:	00 1f 1e 1e 1e 1e 1f 00 00 1f 1f 1f 1f 1f 1f 00     ................
      de:	03 07 0f 1f 0f 07 03 00 18 1c 1e 1f 1e 1c 18 00     ................

000000ee <__c.1790>:
      ee:	6e 61 6e 00                                         nan.

000000f2 <__c.1788>:
      f2:	69 6e 66 00 00 40 7a 10 f3 5a 00 a0 72 4e 18 09     inf..@z..Z..rN..
     102:	00 10 a5 d4 e8 00 00 e8 76 48 17 00 00 e4 0b 54     ........vH.....T
     112:	02 00 00 ca 9a 3b 00 00 00 e1 f5 05 00 00 80 96     .....;..........
     122:	98 00 00 00 40 42 0f 00 00 00 a0 86 01 00 00 00     ....@B..........
     132:	10 27 00 00 00 00 e8 03 00 00 00 00 64 00 00 00     .'..........d...
     142:	00 00 0a 00 00 00 00 00 01 00 00 00 00 00 2c 76     ..............,v
     152:	d8 88 dc 67 4f 08 23 df c1 df ae 59 e1 b1 b7 96     ...gO.#....Y....
     162:	e5 e3 e4 53 c6 3a e6 51 99 76 96 e8 e6 c2 84 26     ...S.:.Q.v.....&
     172:	eb 89 8c 9b 62 ed 40 7c 6f fc ef bc 9c 9f 40 f2     ....b.@|o.....@.
     182:	ba a5 6f a5 f4 90 05 5a 2a f7 5c 93 6b 6c f9 67     ..o....Z*.\.kl.g
     192:	6d c1 1b fc e0 e4 0d 47 fe f5 20 e6 b5 00 d0 ed     m......G.. .....
     1a2:	90 2e 03 00 94 35 77 05 00 80 84 1e 08 00 00 20     .....5w........ 
     1b2:	4e 0a 00 00 00 c8 0c 33 33 33 33 0f 98 6e 12 83     N......3333..n..
     1c2:	11 41 ef 8d 21 14 89 3b e6 55 16 cf fe e6 db 18     .A..!..;.U......
     1d2:	d1 84 4b 38 1b f7 7c 1d 90 1d a4 bb e4 24 20 32     ..K8..|......$ 2
     1e2:	84 72 5e 22 81 00 c9 f1 24 ec a1 e5 3d 27           .r^"....$...='

000001f0 <__c.1988>:
     1f0:	63 64 69 6e 6f 70 73 75 78 58 5b 00                 cdinopsuxX[.

000001fc <__ctors_end>:
     1fc:	11 24       	eor	r1, r1
     1fe:	1f be       	out	0x3f, r1	; 63
     200:	cf ef       	ldi	r28, 0xFF	; 255
     202:	d8 e0       	ldi	r29, 0x08	; 8
     204:	de bf       	out	0x3e, r29	; 62
     206:	cd bf       	out	0x3d, r28	; 61

00000208 <__do_copy_data>:
     208:	12 e0       	ldi	r17, 0x02	; 2
     20a:	a0 e0       	ldi	r26, 0x00	; 0
     20c:	b1 e0       	ldi	r27, 0x01	; 1
     20e:	e4 e8       	ldi	r30, 0x84	; 132
     210:	f3 e2       	ldi	r31, 0x23	; 35
     212:	02 c0       	rjmp	.+4      	; 0x218 <.do_copy_data_start>

00000214 <.do_copy_data_loop>:
     214:	05 90       	lpm	r0, Z+
     216:	0d 92       	st	X+, r0

00000218 <.do_copy_data_start>:
     218:	ae 3f       	cpi	r26, 0xFE	; 254
     21a:	b1 07       	cpc	r27, r17
     21c:	d9 f7       	brne	.-10     	; 0x214 <.do_copy_data_loop>

0000021e <__do_clear_bss>:
     21e:	13 e0       	ldi	r17, 0x03	; 3
     220:	ae ef       	ldi	r26, 0xFE	; 254
     222:	b2 e0       	ldi	r27, 0x02	; 2
     224:	01 c0       	rjmp	.+2      	; 0x228 <.do_clear_bss_start>

00000226 <.do_clear_bss_loop>:
     226:	1d 92       	st	X+, r1

00000228 <.do_clear_bss_start>:
     228:	a9 34       	cpi	r26, 0x49	; 73
     22a:	b1 07       	cpc	r27, r17
     22c:	e1 f7       	brne	.-8      	; 0x226 <.do_clear_bss_loop>
     22e:	0e 94 fc 04 	call	0x9f8	; 0x9f8 <main>
     232:	0c 94 c0 11 	jmp	0x2380	; 0x2380 <_exit>

00000236 <__bad_interrupt>:
     236:	0c 94 00 00 	jmp	0	; 0x0 <__vectors>

0000023a <__mulsf3>:
     23a:	a0 e2       	ldi	r26, 0x20	; 32
     23c:	b0 e0       	ldi	r27, 0x00	; 0
     23e:	e3 e2       	ldi	r30, 0x23	; 35
     240:	f1 e0       	ldi	r31, 0x01	; 1
     242:	0c 94 a4 0c 	jmp	0x1948	; 0x1948 <__prologue_saves__>
     246:	69 83       	std	Y+1, r22	; 0x01
     248:	7a 83       	std	Y+2, r23	; 0x02
     24a:	8b 83       	std	Y+3, r24	; 0x03
     24c:	9c 83       	std	Y+4, r25	; 0x04
     24e:	2d 83       	std	Y+5, r18	; 0x05
     250:	3e 83       	std	Y+6, r19	; 0x06
     252:	4f 83       	std	Y+7, r20	; 0x07
     254:	58 87       	std	Y+8, r21	; 0x08
     256:	ce 01       	movw	r24, r28
     258:	01 96       	adiw	r24, 0x01	; 1
     25a:	be 01       	movw	r22, r28
     25c:	67 5f       	subi	r22, 0xF7	; 247
     25e:	7f 4f       	sbci	r23, 0xFF	; 255
     260:	0e 94 b4 03 	call	0x768	; 0x768 <__unpack_f>
     264:	ce 01       	movw	r24, r28
     266:	05 96       	adiw	r24, 0x05	; 5
     268:	be 01       	movw	r22, r28
     26a:	6f 5e       	subi	r22, 0xEF	; 239
     26c:	7f 4f       	sbci	r23, 0xFF	; 255
     26e:	0e 94 b4 03 	call	0x768	; 0x768 <__unpack_f>
     272:	99 85       	ldd	r25, Y+9	; 0x09
     274:	92 30       	cpi	r25, 0x02	; 2
     276:	88 f0       	brcs	.+34     	; 0x29a <__mulsf3+0x60>
     278:	89 89       	ldd	r24, Y+17	; 0x11
     27a:	82 30       	cpi	r24, 0x02	; 2
     27c:	c8 f0       	brcs	.+50     	; 0x2b0 <__mulsf3+0x76>
     27e:	94 30       	cpi	r25, 0x04	; 4
     280:	19 f4       	brne	.+6      	; 0x288 <__mulsf3+0x4e>
     282:	82 30       	cpi	r24, 0x02	; 2
     284:	51 f4       	brne	.+20     	; 0x29a <__mulsf3+0x60>
     286:	04 c0       	rjmp	.+8      	; 0x290 <__mulsf3+0x56>
     288:	84 30       	cpi	r24, 0x04	; 4
     28a:	29 f4       	brne	.+10     	; 0x296 <__mulsf3+0x5c>
     28c:	92 30       	cpi	r25, 0x02	; 2
     28e:	81 f4       	brne	.+32     	; 0x2b0 <__mulsf3+0x76>
     290:	87 ee       	ldi	r24, 0xE7	; 231
     292:	91 e0       	ldi	r25, 0x01	; 1
     294:	c6 c0       	rjmp	.+396    	; 0x422 <__mulsf3+0x1e8>
     296:	92 30       	cpi	r25, 0x02	; 2
     298:	49 f4       	brne	.+18     	; 0x2ac <__mulsf3+0x72>
     29a:	20 e0       	ldi	r18, 0x00	; 0
     29c:	9a 85       	ldd	r25, Y+10	; 0x0a
     29e:	8a 89       	ldd	r24, Y+18	; 0x12
     2a0:	98 13       	cpse	r25, r24
     2a2:	21 e0       	ldi	r18, 0x01	; 1
     2a4:	2a 87       	std	Y+10, r18	; 0x0a
     2a6:	ce 01       	movw	r24, r28
     2a8:	09 96       	adiw	r24, 0x09	; 9
     2aa:	bb c0       	rjmp	.+374    	; 0x422 <__mulsf3+0x1e8>
     2ac:	82 30       	cpi	r24, 0x02	; 2
     2ae:	49 f4       	brne	.+18     	; 0x2c2 <__mulsf3+0x88>
     2b0:	20 e0       	ldi	r18, 0x00	; 0
     2b2:	9a 85       	ldd	r25, Y+10	; 0x0a
     2b4:	8a 89       	ldd	r24, Y+18	; 0x12
     2b6:	98 13       	cpse	r25, r24
     2b8:	21 e0       	ldi	r18, 0x01	; 1
     2ba:	2a 8b       	std	Y+18, r18	; 0x12
     2bc:	ce 01       	movw	r24, r28
     2be:	41 96       	adiw	r24, 0x11	; 17
     2c0:	b0 c0       	rjmp	.+352    	; 0x422 <__mulsf3+0x1e8>
     2c2:	2d 84       	ldd	r2, Y+13	; 0x0d
     2c4:	3e 84       	ldd	r3, Y+14	; 0x0e
     2c6:	4f 84       	ldd	r4, Y+15	; 0x0f
     2c8:	58 88       	ldd	r5, Y+16	; 0x10
     2ca:	6d 88       	ldd	r6, Y+21	; 0x15
     2cc:	7e 88       	ldd	r7, Y+22	; 0x16
     2ce:	8f 88       	ldd	r8, Y+23	; 0x17
     2d0:	98 8c       	ldd	r9, Y+24	; 0x18
     2d2:	ee 24       	eor	r14, r14
     2d4:	ff 24       	eor	r15, r15
     2d6:	87 01       	movw	r16, r14
     2d8:	aa 24       	eor	r10, r10
     2da:	bb 24       	eor	r11, r11
     2dc:	65 01       	movw	r12, r10
     2de:	40 e0       	ldi	r20, 0x00	; 0
     2e0:	50 e0       	ldi	r21, 0x00	; 0
     2e2:	60 e0       	ldi	r22, 0x00	; 0
     2e4:	70 e0       	ldi	r23, 0x00	; 0
     2e6:	e0 e0       	ldi	r30, 0x00	; 0
     2e8:	f0 e0       	ldi	r31, 0x00	; 0
     2ea:	c1 01       	movw	r24, r2
     2ec:	81 70       	andi	r24, 0x01	; 1
     2ee:	90 70       	andi	r25, 0x00	; 0
     2f0:	89 2b       	or	r24, r25
     2f2:	e9 f0       	breq	.+58     	; 0x32e <__mulsf3+0xf4>
     2f4:	e6 0c       	add	r14, r6
     2f6:	f7 1c       	adc	r15, r7
     2f8:	08 1d       	adc	r16, r8
     2fa:	19 1d       	adc	r17, r9
     2fc:	9a 01       	movw	r18, r20
     2fe:	ab 01       	movw	r20, r22
     300:	2a 0d       	add	r18, r10
     302:	3b 1d       	adc	r19, r11
     304:	4c 1d       	adc	r20, r12
     306:	5d 1d       	adc	r21, r13
     308:	80 e0       	ldi	r24, 0x00	; 0
     30a:	90 e0       	ldi	r25, 0x00	; 0
     30c:	a0 e0       	ldi	r26, 0x00	; 0
     30e:	b0 e0       	ldi	r27, 0x00	; 0
     310:	e6 14       	cp	r14, r6
     312:	f7 04       	cpc	r15, r7
     314:	08 05       	cpc	r16, r8
     316:	19 05       	cpc	r17, r9
     318:	20 f4       	brcc	.+8      	; 0x322 <__mulsf3+0xe8>
     31a:	81 e0       	ldi	r24, 0x01	; 1
     31c:	90 e0       	ldi	r25, 0x00	; 0
     31e:	a0 e0       	ldi	r26, 0x00	; 0
     320:	b0 e0       	ldi	r27, 0x00	; 0
     322:	ba 01       	movw	r22, r20
     324:	a9 01       	movw	r20, r18
     326:	48 0f       	add	r20, r24
     328:	59 1f       	adc	r21, r25
     32a:	6a 1f       	adc	r22, r26
     32c:	7b 1f       	adc	r23, r27
     32e:	aa 0c       	add	r10, r10
     330:	bb 1c       	adc	r11, r11
     332:	cc 1c       	adc	r12, r12
     334:	dd 1c       	adc	r13, r13
     336:	97 fe       	sbrs	r9, 7
     338:	08 c0       	rjmp	.+16     	; 0x34a <__mulsf3+0x110>
     33a:	81 e0       	ldi	r24, 0x01	; 1
     33c:	90 e0       	ldi	r25, 0x00	; 0
     33e:	a0 e0       	ldi	r26, 0x00	; 0
     340:	b0 e0       	ldi	r27, 0x00	; 0
     342:	a8 2a       	or	r10, r24
     344:	b9 2a       	or	r11, r25
     346:	ca 2a       	or	r12, r26
     348:	db 2a       	or	r13, r27
     34a:	31 96       	adiw	r30, 0x01	; 1
     34c:	e0 32       	cpi	r30, 0x20	; 32
     34e:	f1 05       	cpc	r31, r1
     350:	49 f0       	breq	.+18     	; 0x364 <__mulsf3+0x12a>
     352:	66 0c       	add	r6, r6
     354:	77 1c       	adc	r7, r7
     356:	88 1c       	adc	r8, r8
     358:	99 1c       	adc	r9, r9
     35a:	56 94       	lsr	r5
     35c:	47 94       	ror	r4
     35e:	37 94       	ror	r3
     360:	27 94       	ror	r2
     362:	c3 cf       	rjmp	.-122    	; 0x2ea <__mulsf3+0xb0>
     364:	fa 85       	ldd	r31, Y+10	; 0x0a
     366:	ea 89       	ldd	r30, Y+18	; 0x12
     368:	2b 89       	ldd	r18, Y+19	; 0x13
     36a:	3c 89       	ldd	r19, Y+20	; 0x14
     36c:	8b 85       	ldd	r24, Y+11	; 0x0b
     36e:	9c 85       	ldd	r25, Y+12	; 0x0c
     370:	28 0f       	add	r18, r24
     372:	39 1f       	adc	r19, r25
     374:	2e 5f       	subi	r18, 0xFE	; 254
     376:	3f 4f       	sbci	r19, 0xFF	; 255
     378:	17 c0       	rjmp	.+46     	; 0x3a8 <__mulsf3+0x16e>
     37a:	ca 01       	movw	r24, r20
     37c:	81 70       	andi	r24, 0x01	; 1
     37e:	90 70       	andi	r25, 0x00	; 0
     380:	89 2b       	or	r24, r25
     382:	61 f0       	breq	.+24     	; 0x39c <__mulsf3+0x162>
     384:	16 95       	lsr	r17
     386:	07 95       	ror	r16
     388:	f7 94       	ror	r15
     38a:	e7 94       	ror	r14
     38c:	80 e0       	ldi	r24, 0x00	; 0
     38e:	90 e0       	ldi	r25, 0x00	; 0
     390:	a0 e0       	ldi	r26, 0x00	; 0
     392:	b0 e8       	ldi	r27, 0x80	; 128
     394:	e8 2a       	or	r14, r24
     396:	f9 2a       	or	r15, r25
     398:	0a 2b       	or	r16, r26
     39a:	1b 2b       	or	r17, r27
     39c:	76 95       	lsr	r23
     39e:	67 95       	ror	r22
     3a0:	57 95       	ror	r21
     3a2:	47 95       	ror	r20
     3a4:	2f 5f       	subi	r18, 0xFF	; 255
     3a6:	3f 4f       	sbci	r19, 0xFF	; 255
     3a8:	77 fd       	sbrc	r23, 7
     3aa:	e7 cf       	rjmp	.-50     	; 0x37a <__mulsf3+0x140>
     3ac:	0c c0       	rjmp	.+24     	; 0x3c6 <__mulsf3+0x18c>
     3ae:	44 0f       	add	r20, r20
     3b0:	55 1f       	adc	r21, r21
     3b2:	66 1f       	adc	r22, r22
     3b4:	77 1f       	adc	r23, r23
     3b6:	17 fd       	sbrc	r17, 7
     3b8:	41 60       	ori	r20, 0x01	; 1
     3ba:	ee 0c       	add	r14, r14
     3bc:	ff 1c       	adc	r15, r15
     3be:	00 1f       	adc	r16, r16
     3c0:	11 1f       	adc	r17, r17
     3c2:	21 50       	subi	r18, 0x01	; 1
     3c4:	30 40       	sbci	r19, 0x00	; 0
     3c6:	40 30       	cpi	r20, 0x00	; 0
     3c8:	90 e0       	ldi	r25, 0x00	; 0
     3ca:	59 07       	cpc	r21, r25
     3cc:	90 e0       	ldi	r25, 0x00	; 0
     3ce:	69 07       	cpc	r22, r25
     3d0:	90 e4       	ldi	r25, 0x40	; 64
     3d2:	79 07       	cpc	r23, r25
     3d4:	60 f3       	brcs	.-40     	; 0x3ae <__mulsf3+0x174>
     3d6:	2b 8f       	std	Y+27, r18	; 0x1b
     3d8:	3c 8f       	std	Y+28, r19	; 0x1c
     3da:	db 01       	movw	r26, r22
     3dc:	ca 01       	movw	r24, r20
     3de:	8f 77       	andi	r24, 0x7F	; 127
     3e0:	90 70       	andi	r25, 0x00	; 0
     3e2:	a0 70       	andi	r26, 0x00	; 0
     3e4:	b0 70       	andi	r27, 0x00	; 0
     3e6:	80 34       	cpi	r24, 0x40	; 64
     3e8:	91 05       	cpc	r25, r1
     3ea:	a1 05       	cpc	r26, r1
     3ec:	b1 05       	cpc	r27, r1
     3ee:	61 f4       	brne	.+24     	; 0x408 <__mulsf3+0x1ce>
     3f0:	47 fd       	sbrc	r20, 7
     3f2:	0a c0       	rjmp	.+20     	; 0x408 <__mulsf3+0x1ce>
     3f4:	e1 14       	cp	r14, r1
     3f6:	f1 04       	cpc	r15, r1
     3f8:	01 05       	cpc	r16, r1
     3fa:	11 05       	cpc	r17, r1
     3fc:	29 f0       	breq	.+10     	; 0x408 <__mulsf3+0x1ce>
     3fe:	40 5c       	subi	r20, 0xC0	; 192
     400:	5f 4f       	sbci	r21, 0xFF	; 255
     402:	6f 4f       	sbci	r22, 0xFF	; 255
     404:	7f 4f       	sbci	r23, 0xFF	; 255
     406:	40 78       	andi	r20, 0x80	; 128
     408:	1a 8e       	std	Y+26, r1	; 0x1a
     40a:	fe 17       	cp	r31, r30
     40c:	11 f0       	breq	.+4      	; 0x412 <__mulsf3+0x1d8>
     40e:	81 e0       	ldi	r24, 0x01	; 1
     410:	8a 8f       	std	Y+26, r24	; 0x1a
     412:	4d 8f       	std	Y+29, r20	; 0x1d
     414:	5e 8f       	std	Y+30, r21	; 0x1e
     416:	6f 8f       	std	Y+31, r22	; 0x1f
     418:	78 a3       	std	Y+32, r23	; 0x20
     41a:	83 e0       	ldi	r24, 0x03	; 3
     41c:	89 8f       	std	Y+25, r24	; 0x19
     41e:	ce 01       	movw	r24, r28
     420:	49 96       	adiw	r24, 0x19	; 25
     422:	0e 94 df 02 	call	0x5be	; 0x5be <__pack_f>
     426:	a0 96       	adiw	r28, 0x20	; 32
     428:	e2 e1       	ldi	r30, 0x12	; 18
     42a:	0c 94 c0 0c 	jmp	0x1980	; 0x1980 <__epilogue_restores__>

0000042e <__floatunsisf>:
     42e:	a8 e0       	ldi	r26, 0x08	; 8
     430:	b0 e0       	ldi	r27, 0x00	; 0
     432:	ed e1       	ldi	r30, 0x1D	; 29
     434:	f2 e0       	ldi	r31, 0x02	; 2
     436:	0c 94 ac 0c 	jmp	0x1958	; 0x1958 <__prologue_saves__+0x10>
     43a:	7b 01       	movw	r14, r22
     43c:	8c 01       	movw	r16, r24
     43e:	61 15       	cp	r22, r1
     440:	71 05       	cpc	r23, r1
     442:	81 05       	cpc	r24, r1
     444:	91 05       	cpc	r25, r1
     446:	19 f4       	brne	.+6      	; 0x44e <__floatunsisf+0x20>
     448:	82 e0       	ldi	r24, 0x02	; 2
     44a:	89 83       	std	Y+1, r24	; 0x01
     44c:	60 c0       	rjmp	.+192    	; 0x50e <__floatunsisf+0xe0>
     44e:	83 e0       	ldi	r24, 0x03	; 3
     450:	89 83       	std	Y+1, r24	; 0x01
     452:	8e e1       	ldi	r24, 0x1E	; 30
     454:	c8 2e       	mov	r12, r24
     456:	d1 2c       	mov	r13, r1
     458:	dc 82       	std	Y+4, r13	; 0x04
     45a:	cb 82       	std	Y+3, r12	; 0x03
     45c:	ed 82       	std	Y+5, r14	; 0x05
     45e:	fe 82       	std	Y+6, r15	; 0x06
     460:	0f 83       	std	Y+7, r16	; 0x07
     462:	18 87       	std	Y+8, r17	; 0x08
     464:	c8 01       	movw	r24, r16
     466:	b7 01       	movw	r22, r14
     468:	0e 94 90 02 	call	0x520	; 0x520 <__clzsi2>
     46c:	fc 01       	movw	r30, r24
     46e:	31 97       	sbiw	r30, 0x01	; 1
     470:	f7 ff       	sbrs	r31, 7
     472:	3b c0       	rjmp	.+118    	; 0x4ea <__floatunsisf+0xbc>
     474:	22 27       	eor	r18, r18
     476:	33 27       	eor	r19, r19
     478:	2e 1b       	sub	r18, r30
     47a:	3f 0b       	sbc	r19, r31
     47c:	57 01       	movw	r10, r14
     47e:	68 01       	movw	r12, r16
     480:	02 2e       	mov	r0, r18
     482:	04 c0       	rjmp	.+8      	; 0x48c <__floatunsisf+0x5e>
     484:	d6 94       	lsr	r13
     486:	c7 94       	ror	r12
     488:	b7 94       	ror	r11
     48a:	a7 94       	ror	r10
     48c:	0a 94       	dec	r0
     48e:	d2 f7       	brpl	.-12     	; 0x484 <__floatunsisf+0x56>
     490:	40 e0       	ldi	r20, 0x00	; 0
     492:	50 e0       	ldi	r21, 0x00	; 0
     494:	60 e0       	ldi	r22, 0x00	; 0
     496:	70 e0       	ldi	r23, 0x00	; 0
     498:	81 e0       	ldi	r24, 0x01	; 1
     49a:	90 e0       	ldi	r25, 0x00	; 0
     49c:	a0 e0       	ldi	r26, 0x00	; 0
     49e:	b0 e0       	ldi	r27, 0x00	; 0
     4a0:	04 c0       	rjmp	.+8      	; 0x4aa <__floatunsisf+0x7c>
     4a2:	88 0f       	add	r24, r24
     4a4:	99 1f       	adc	r25, r25
     4a6:	aa 1f       	adc	r26, r26
     4a8:	bb 1f       	adc	r27, r27
     4aa:	2a 95       	dec	r18
     4ac:	d2 f7       	brpl	.-12     	; 0x4a2 <__floatunsisf+0x74>
     4ae:	01 97       	sbiw	r24, 0x01	; 1
     4b0:	a1 09       	sbc	r26, r1
     4b2:	b1 09       	sbc	r27, r1
     4b4:	8e 21       	and	r24, r14
     4b6:	9f 21       	and	r25, r15
     4b8:	a0 23       	and	r26, r16
     4ba:	b1 23       	and	r27, r17
     4bc:	00 97       	sbiw	r24, 0x00	; 0
     4be:	a1 05       	cpc	r26, r1
     4c0:	b1 05       	cpc	r27, r1
     4c2:	21 f0       	breq	.+8      	; 0x4cc <__floatunsisf+0x9e>
     4c4:	41 e0       	ldi	r20, 0x01	; 1
     4c6:	50 e0       	ldi	r21, 0x00	; 0
     4c8:	60 e0       	ldi	r22, 0x00	; 0
     4ca:	70 e0       	ldi	r23, 0x00	; 0
     4cc:	4a 29       	or	r20, r10
     4ce:	5b 29       	or	r21, r11
     4d0:	6c 29       	or	r22, r12
     4d2:	7d 29       	or	r23, r13
     4d4:	4d 83       	std	Y+5, r20	; 0x05
     4d6:	5e 83       	std	Y+6, r21	; 0x06
     4d8:	6f 83       	std	Y+7, r22	; 0x07
     4da:	78 87       	std	Y+8, r23	; 0x08
     4dc:	8e e1       	ldi	r24, 0x1E	; 30
     4de:	90 e0       	ldi	r25, 0x00	; 0
     4e0:	8e 1b       	sub	r24, r30
     4e2:	9f 0b       	sbc	r25, r31
     4e4:	9c 83       	std	Y+4, r25	; 0x04
     4e6:	8b 83       	std	Y+3, r24	; 0x03
     4e8:	12 c0       	rjmp	.+36     	; 0x50e <__floatunsisf+0xe0>
     4ea:	30 97       	sbiw	r30, 0x00	; 0
     4ec:	81 f0       	breq	.+32     	; 0x50e <__floatunsisf+0xe0>
     4ee:	0e 2e       	mov	r0, r30
     4f0:	04 c0       	rjmp	.+8      	; 0x4fa <__floatunsisf+0xcc>
     4f2:	ee 0c       	add	r14, r14
     4f4:	ff 1c       	adc	r15, r15
     4f6:	00 1f       	adc	r16, r16
     4f8:	11 1f       	adc	r17, r17
     4fa:	0a 94       	dec	r0
     4fc:	d2 f7       	brpl	.-12     	; 0x4f2 <__floatunsisf+0xc4>
     4fe:	ed 82       	std	Y+5, r14	; 0x05
     500:	fe 82       	std	Y+6, r15	; 0x06
     502:	0f 83       	std	Y+7, r16	; 0x07
     504:	18 87       	std	Y+8, r17	; 0x08
     506:	ce 1a       	sub	r12, r30
     508:	df 0a       	sbc	r13, r31
     50a:	dc 82       	std	Y+4, r13	; 0x04
     50c:	cb 82       	std	Y+3, r12	; 0x03
     50e:	1a 82       	std	Y+2, r1	; 0x02
     510:	ce 01       	movw	r24, r28
     512:	01 96       	adiw	r24, 0x01	; 1
     514:	0e 94 df 02 	call	0x5be	; 0x5be <__pack_f>
     518:	28 96       	adiw	r28, 0x08	; 8
     51a:	ea e0       	ldi	r30, 0x0A	; 10
     51c:	0c 94 c8 0c 	jmp	0x1990	; 0x1990 <__epilogue_restores__+0x10>

00000520 <__clzsi2>:
     520:	ef 92       	push	r14
     522:	ff 92       	push	r15
     524:	0f 93       	push	r16
     526:	1f 93       	push	r17
     528:	7b 01       	movw	r14, r22
     52a:	8c 01       	movw	r16, r24
     52c:	80 e0       	ldi	r24, 0x00	; 0
     52e:	e8 16       	cp	r14, r24
     530:	80 e0       	ldi	r24, 0x00	; 0
     532:	f8 06       	cpc	r15, r24
     534:	81 e0       	ldi	r24, 0x01	; 1
     536:	08 07       	cpc	r16, r24
     538:	80 e0       	ldi	r24, 0x00	; 0
     53a:	18 07       	cpc	r17, r24
     53c:	88 f4       	brcc	.+34     	; 0x560 <__clzsi2+0x40>
     53e:	8f ef       	ldi	r24, 0xFF	; 255
     540:	e8 16       	cp	r14, r24
     542:	f1 04       	cpc	r15, r1
     544:	01 05       	cpc	r16, r1
     546:	11 05       	cpc	r17, r1
     548:	31 f0       	breq	.+12     	; 0x556 <__clzsi2+0x36>
     54a:	28 f0       	brcs	.+10     	; 0x556 <__clzsi2+0x36>
     54c:	88 e0       	ldi	r24, 0x08	; 8
     54e:	90 e0       	ldi	r25, 0x00	; 0
     550:	a0 e0       	ldi	r26, 0x00	; 0
     552:	b0 e0       	ldi	r27, 0x00	; 0
     554:	17 c0       	rjmp	.+46     	; 0x584 <__clzsi2+0x64>
     556:	80 e0       	ldi	r24, 0x00	; 0
     558:	90 e0       	ldi	r25, 0x00	; 0
     55a:	a0 e0       	ldi	r26, 0x00	; 0
     55c:	b0 e0       	ldi	r27, 0x00	; 0
     55e:	12 c0       	rjmp	.+36     	; 0x584 <__clzsi2+0x64>
     560:	80 e0       	ldi	r24, 0x00	; 0
     562:	e8 16       	cp	r14, r24
     564:	80 e0       	ldi	r24, 0x00	; 0
     566:	f8 06       	cpc	r15, r24
     568:	80 e0       	ldi	r24, 0x00	; 0
     56a:	08 07       	cpc	r16, r24
     56c:	81 e0       	ldi	r24, 0x01	; 1
     56e:	18 07       	cpc	r17, r24
     570:	28 f0       	brcs	.+10     	; 0x57c <__clzsi2+0x5c>
     572:	88 e1       	ldi	r24, 0x18	; 24
     574:	90 e0       	ldi	r25, 0x00	; 0
     576:	a0 e0       	ldi	r26, 0x00	; 0
     578:	b0 e0       	ldi	r27, 0x00	; 0
     57a:	04 c0       	rjmp	.+8      	; 0x584 <__clzsi2+0x64>
     57c:	80 e1       	ldi	r24, 0x10	; 16
     57e:	90 e0       	ldi	r25, 0x00	; 0
     580:	a0 e0       	ldi	r26, 0x00	; 0
     582:	b0 e0       	ldi	r27, 0x00	; 0
     584:	20 e2       	ldi	r18, 0x20	; 32
     586:	30 e0       	ldi	r19, 0x00	; 0
     588:	40 e0       	ldi	r20, 0x00	; 0
     58a:	50 e0       	ldi	r21, 0x00	; 0
     58c:	28 1b       	sub	r18, r24
     58e:	39 0b       	sbc	r19, r25
     590:	4a 0b       	sbc	r20, r26
     592:	5b 0b       	sbc	r21, r27
     594:	04 c0       	rjmp	.+8      	; 0x59e <__clzsi2+0x7e>
     596:	16 95       	lsr	r17
     598:	07 95       	ror	r16
     59a:	f7 94       	ror	r15
     59c:	e7 94       	ror	r14
     59e:	8a 95       	dec	r24
     5a0:	d2 f7       	brpl	.-12     	; 0x596 <__clzsi2+0x76>
     5a2:	f7 01       	movw	r30, r14
     5a4:	e1 51       	subi	r30, 0x11	; 17
     5a6:	fe 4f       	sbci	r31, 0xFE	; 254
     5a8:	80 81       	ld	r24, Z
     5aa:	28 1b       	sub	r18, r24
     5ac:	31 09       	sbc	r19, r1
     5ae:	41 09       	sbc	r20, r1
     5b0:	51 09       	sbc	r21, r1
     5b2:	c9 01       	movw	r24, r18
     5b4:	1f 91       	pop	r17
     5b6:	0f 91       	pop	r16
     5b8:	ff 90       	pop	r15
     5ba:	ef 90       	pop	r14
     5bc:	08 95       	ret

000005be <__pack_f>:
     5be:	df 92       	push	r13
     5c0:	ef 92       	push	r14
     5c2:	ff 92       	push	r15
     5c4:	0f 93       	push	r16
     5c6:	1f 93       	push	r17
     5c8:	fc 01       	movw	r30, r24
     5ca:	e4 80       	ldd	r14, Z+4	; 0x04
     5cc:	f5 80       	ldd	r15, Z+5	; 0x05
     5ce:	06 81       	ldd	r16, Z+6	; 0x06
     5d0:	17 81       	ldd	r17, Z+7	; 0x07
     5d2:	d1 80       	ldd	r13, Z+1	; 0x01
     5d4:	80 81       	ld	r24, Z
     5d6:	82 30       	cpi	r24, 0x02	; 2
     5d8:	48 f4       	brcc	.+18     	; 0x5ec <__pack_f+0x2e>
     5da:	80 e0       	ldi	r24, 0x00	; 0
     5dc:	90 e0       	ldi	r25, 0x00	; 0
     5de:	a0 e1       	ldi	r26, 0x10	; 16
     5e0:	b0 e0       	ldi	r27, 0x00	; 0
     5e2:	e8 2a       	or	r14, r24
     5e4:	f9 2a       	or	r15, r25
     5e6:	0a 2b       	or	r16, r26
     5e8:	1b 2b       	or	r17, r27
     5ea:	a5 c0       	rjmp	.+330    	; 0x736 <__pack_f+0x178>
     5ec:	84 30       	cpi	r24, 0x04	; 4
     5ee:	09 f4       	brne	.+2      	; 0x5f2 <__pack_f+0x34>
     5f0:	9f c0       	rjmp	.+318    	; 0x730 <__pack_f+0x172>
     5f2:	82 30       	cpi	r24, 0x02	; 2
     5f4:	21 f4       	brne	.+8      	; 0x5fe <__pack_f+0x40>
     5f6:	ee 24       	eor	r14, r14
     5f8:	ff 24       	eor	r15, r15
     5fa:	87 01       	movw	r16, r14
     5fc:	05 c0       	rjmp	.+10     	; 0x608 <__pack_f+0x4a>
     5fe:	e1 14       	cp	r14, r1
     600:	f1 04       	cpc	r15, r1
     602:	01 05       	cpc	r16, r1
     604:	11 05       	cpc	r17, r1
     606:	19 f4       	brne	.+6      	; 0x60e <__pack_f+0x50>
     608:	e0 e0       	ldi	r30, 0x00	; 0
     60a:	f0 e0       	ldi	r31, 0x00	; 0
     60c:	96 c0       	rjmp	.+300    	; 0x73a <__pack_f+0x17c>
     60e:	62 81       	ldd	r22, Z+2	; 0x02
     610:	73 81       	ldd	r23, Z+3	; 0x03
     612:	9f ef       	ldi	r25, 0xFF	; 255
     614:	62 38       	cpi	r22, 0x82	; 130
     616:	79 07       	cpc	r23, r25
     618:	0c f0       	brlt	.+2      	; 0x61c <__pack_f+0x5e>
     61a:	5b c0       	rjmp	.+182    	; 0x6d2 <__pack_f+0x114>
     61c:	22 e8       	ldi	r18, 0x82	; 130
     61e:	3f ef       	ldi	r19, 0xFF	; 255
     620:	26 1b       	sub	r18, r22
     622:	37 0b       	sbc	r19, r23
     624:	2a 31       	cpi	r18, 0x1A	; 26
     626:	31 05       	cpc	r19, r1
     628:	2c f0       	brlt	.+10     	; 0x634 <__pack_f+0x76>
     62a:	20 e0       	ldi	r18, 0x00	; 0
     62c:	30 e0       	ldi	r19, 0x00	; 0
     62e:	40 e0       	ldi	r20, 0x00	; 0
     630:	50 e0       	ldi	r21, 0x00	; 0
     632:	2a c0       	rjmp	.+84     	; 0x688 <__pack_f+0xca>
     634:	b8 01       	movw	r22, r16
     636:	a7 01       	movw	r20, r14
     638:	02 2e       	mov	r0, r18
     63a:	04 c0       	rjmp	.+8      	; 0x644 <__pack_f+0x86>
     63c:	76 95       	lsr	r23
     63e:	67 95       	ror	r22
     640:	57 95       	ror	r21
     642:	47 95       	ror	r20
     644:	0a 94       	dec	r0
     646:	d2 f7       	brpl	.-12     	; 0x63c <__pack_f+0x7e>
     648:	81 e0       	ldi	r24, 0x01	; 1
     64a:	90 e0       	ldi	r25, 0x00	; 0
     64c:	a0 e0       	ldi	r26, 0x00	; 0
     64e:	b0 e0       	ldi	r27, 0x00	; 0
     650:	04 c0       	rjmp	.+8      	; 0x65a <__pack_f+0x9c>
     652:	88 0f       	add	r24, r24
     654:	99 1f       	adc	r25, r25
     656:	aa 1f       	adc	r26, r26
     658:	bb 1f       	adc	r27, r27
     65a:	2a 95       	dec	r18
     65c:	d2 f7       	brpl	.-12     	; 0x652 <__pack_f+0x94>
     65e:	01 97       	sbiw	r24, 0x01	; 1
     660:	a1 09       	sbc	r26, r1
     662:	b1 09       	sbc	r27, r1
     664:	8e 21       	and	r24, r14
     666:	9f 21       	and	r25, r15
     668:	a0 23       	and	r26, r16
     66a:	b1 23       	and	r27, r17
     66c:	00 97       	sbiw	r24, 0x00	; 0
     66e:	a1 05       	cpc	r26, r1
     670:	b1 05       	cpc	r27, r1
     672:	21 f0       	breq	.+8      	; 0x67c <__pack_f+0xbe>
     674:	81 e0       	ldi	r24, 0x01	; 1
     676:	90 e0       	ldi	r25, 0x00	; 0
     678:	a0 e0       	ldi	r26, 0x00	; 0
     67a:	b0 e0       	ldi	r27, 0x00	; 0
     67c:	9a 01       	movw	r18, r20
     67e:	ab 01       	movw	r20, r22
     680:	28 2b       	or	r18, r24
     682:	39 2b       	or	r19, r25
     684:	4a 2b       	or	r20, r26
     686:	5b 2b       	or	r21, r27
     688:	da 01       	movw	r26, r20
     68a:	c9 01       	movw	r24, r18
     68c:	8f 77       	andi	r24, 0x7F	; 127
     68e:	90 70       	andi	r25, 0x00	; 0
     690:	a0 70       	andi	r26, 0x00	; 0
     692:	b0 70       	andi	r27, 0x00	; 0
     694:	80 34       	cpi	r24, 0x40	; 64
     696:	91 05       	cpc	r25, r1
     698:	a1 05       	cpc	r26, r1
     69a:	b1 05       	cpc	r27, r1
     69c:	39 f4       	brne	.+14     	; 0x6ac <__pack_f+0xee>
     69e:	27 ff       	sbrs	r18, 7
     6a0:	09 c0       	rjmp	.+18     	; 0x6b4 <__pack_f+0xf6>
     6a2:	20 5c       	subi	r18, 0xC0	; 192
     6a4:	3f 4f       	sbci	r19, 0xFF	; 255
     6a6:	4f 4f       	sbci	r20, 0xFF	; 255
     6a8:	5f 4f       	sbci	r21, 0xFF	; 255
     6aa:	04 c0       	rjmp	.+8      	; 0x6b4 <__pack_f+0xf6>
     6ac:	21 5c       	subi	r18, 0xC1	; 193
     6ae:	3f 4f       	sbci	r19, 0xFF	; 255
     6b0:	4f 4f       	sbci	r20, 0xFF	; 255
     6b2:	5f 4f       	sbci	r21, 0xFF	; 255
     6b4:	e0 e0       	ldi	r30, 0x00	; 0
     6b6:	f0 e0       	ldi	r31, 0x00	; 0
     6b8:	20 30       	cpi	r18, 0x00	; 0
     6ba:	a0 e0       	ldi	r26, 0x00	; 0
     6bc:	3a 07       	cpc	r19, r26
     6be:	a0 e0       	ldi	r26, 0x00	; 0
     6c0:	4a 07       	cpc	r20, r26
     6c2:	a0 e4       	ldi	r26, 0x40	; 64
     6c4:	5a 07       	cpc	r21, r26
     6c6:	10 f0       	brcs	.+4      	; 0x6cc <__pack_f+0x10e>
     6c8:	e1 e0       	ldi	r30, 0x01	; 1
     6ca:	f0 e0       	ldi	r31, 0x00	; 0
     6cc:	79 01       	movw	r14, r18
     6ce:	8a 01       	movw	r16, r20
     6d0:	27 c0       	rjmp	.+78     	; 0x720 <__pack_f+0x162>
     6d2:	60 38       	cpi	r22, 0x80	; 128
     6d4:	71 05       	cpc	r23, r1
     6d6:	64 f5       	brge	.+88     	; 0x730 <__pack_f+0x172>
     6d8:	fb 01       	movw	r30, r22
     6da:	e1 58       	subi	r30, 0x81	; 129
     6dc:	ff 4f       	sbci	r31, 0xFF	; 255
     6de:	d8 01       	movw	r26, r16
     6e0:	c7 01       	movw	r24, r14
     6e2:	8f 77       	andi	r24, 0x7F	; 127
     6e4:	90 70       	andi	r25, 0x00	; 0
     6e6:	a0 70       	andi	r26, 0x00	; 0
     6e8:	b0 70       	andi	r27, 0x00	; 0
     6ea:	80 34       	cpi	r24, 0x40	; 64
     6ec:	91 05       	cpc	r25, r1
     6ee:	a1 05       	cpc	r26, r1
     6f0:	b1 05       	cpc	r27, r1
     6f2:	39 f4       	brne	.+14     	; 0x702 <__pack_f+0x144>
     6f4:	e7 fe       	sbrs	r14, 7
     6f6:	0d c0       	rjmp	.+26     	; 0x712 <__pack_f+0x154>
     6f8:	80 e4       	ldi	r24, 0x40	; 64
     6fa:	90 e0       	ldi	r25, 0x00	; 0
     6fc:	a0 e0       	ldi	r26, 0x00	; 0
     6fe:	b0 e0       	ldi	r27, 0x00	; 0
     700:	04 c0       	rjmp	.+8      	; 0x70a <__pack_f+0x14c>
     702:	8f e3       	ldi	r24, 0x3F	; 63
     704:	90 e0       	ldi	r25, 0x00	; 0
     706:	a0 e0       	ldi	r26, 0x00	; 0
     708:	b0 e0       	ldi	r27, 0x00	; 0
     70a:	e8 0e       	add	r14, r24
     70c:	f9 1e       	adc	r15, r25
     70e:	0a 1f       	adc	r16, r26
     710:	1b 1f       	adc	r17, r27
     712:	17 ff       	sbrs	r17, 7
     714:	05 c0       	rjmp	.+10     	; 0x720 <__pack_f+0x162>
     716:	16 95       	lsr	r17
     718:	07 95       	ror	r16
     71a:	f7 94       	ror	r15
     71c:	e7 94       	ror	r14
     71e:	31 96       	adiw	r30, 0x01	; 1
     720:	87 e0       	ldi	r24, 0x07	; 7
     722:	16 95       	lsr	r17
     724:	07 95       	ror	r16
     726:	f7 94       	ror	r15
     728:	e7 94       	ror	r14
     72a:	8a 95       	dec	r24
     72c:	d1 f7       	brne	.-12     	; 0x722 <__pack_f+0x164>
     72e:	05 c0       	rjmp	.+10     	; 0x73a <__pack_f+0x17c>
     730:	ee 24       	eor	r14, r14
     732:	ff 24       	eor	r15, r15
     734:	87 01       	movw	r16, r14
     736:	ef ef       	ldi	r30, 0xFF	; 255
     738:	f0 e0       	ldi	r31, 0x00	; 0
     73a:	6e 2f       	mov	r22, r30
     73c:	67 95       	ror	r22
     73e:	66 27       	eor	r22, r22
     740:	67 95       	ror	r22
     742:	90 2f       	mov	r25, r16
     744:	9f 77       	andi	r25, 0x7F	; 127
     746:	d7 94       	ror	r13
     748:	dd 24       	eor	r13, r13
     74a:	d7 94       	ror	r13
     74c:	8e 2f       	mov	r24, r30
     74e:	86 95       	lsr	r24
     750:	49 2f       	mov	r20, r25
     752:	46 2b       	or	r20, r22
     754:	58 2f       	mov	r21, r24
     756:	5d 29       	or	r21, r13
     758:	b7 01       	movw	r22, r14
     75a:	ca 01       	movw	r24, r20
     75c:	1f 91       	pop	r17
     75e:	0f 91       	pop	r16
     760:	ff 90       	pop	r15
     762:	ef 90       	pop	r14
     764:	df 90       	pop	r13
     766:	08 95       	ret

00000768 <__unpack_f>:
     768:	fc 01       	movw	r30, r24
     76a:	db 01       	movw	r26, r22
     76c:	40 81       	ld	r20, Z
     76e:	51 81       	ldd	r21, Z+1	; 0x01
     770:	22 81       	ldd	r18, Z+2	; 0x02
     772:	62 2f       	mov	r22, r18
     774:	6f 77       	andi	r22, 0x7F	; 127
     776:	70 e0       	ldi	r23, 0x00	; 0
     778:	22 1f       	adc	r18, r18
     77a:	22 27       	eor	r18, r18
     77c:	22 1f       	adc	r18, r18
     77e:	93 81       	ldd	r25, Z+3	; 0x03
     780:	89 2f       	mov	r24, r25
     782:	88 0f       	add	r24, r24
     784:	82 2b       	or	r24, r18
     786:	28 2f       	mov	r18, r24
     788:	30 e0       	ldi	r19, 0x00	; 0
     78a:	99 1f       	adc	r25, r25
     78c:	99 27       	eor	r25, r25
     78e:	99 1f       	adc	r25, r25
     790:	11 96       	adiw	r26, 0x01	; 1
     792:	9c 93       	st	X, r25
     794:	11 97       	sbiw	r26, 0x01	; 1
     796:	21 15       	cp	r18, r1
     798:	31 05       	cpc	r19, r1
     79a:	a9 f5       	brne	.+106    	; 0x806 <__unpack_f+0x9e>
     79c:	41 15       	cp	r20, r1
     79e:	51 05       	cpc	r21, r1
     7a0:	61 05       	cpc	r22, r1
     7a2:	71 05       	cpc	r23, r1
     7a4:	11 f4       	brne	.+4      	; 0x7aa <__unpack_f+0x42>
     7a6:	82 e0       	ldi	r24, 0x02	; 2
     7a8:	37 c0       	rjmp	.+110    	; 0x818 <__unpack_f+0xb0>
     7aa:	82 e8       	ldi	r24, 0x82	; 130
     7ac:	9f ef       	ldi	r25, 0xFF	; 255
     7ae:	13 96       	adiw	r26, 0x03	; 3
     7b0:	9c 93       	st	X, r25
     7b2:	8e 93       	st	-X, r24
     7b4:	12 97       	sbiw	r26, 0x02	; 2
     7b6:	9a 01       	movw	r18, r20
     7b8:	ab 01       	movw	r20, r22
     7ba:	67 e0       	ldi	r22, 0x07	; 7
     7bc:	22 0f       	add	r18, r18
     7be:	33 1f       	adc	r19, r19
     7c0:	44 1f       	adc	r20, r20
     7c2:	55 1f       	adc	r21, r21
     7c4:	6a 95       	dec	r22
     7c6:	d1 f7       	brne	.-12     	; 0x7bc <__unpack_f+0x54>
     7c8:	83 e0       	ldi	r24, 0x03	; 3
     7ca:	8c 93       	st	X, r24
     7cc:	0d c0       	rjmp	.+26     	; 0x7e8 <__unpack_f+0x80>
     7ce:	22 0f       	add	r18, r18
     7d0:	33 1f       	adc	r19, r19
     7d2:	44 1f       	adc	r20, r20
     7d4:	55 1f       	adc	r21, r21
     7d6:	12 96       	adiw	r26, 0x02	; 2
     7d8:	8d 91       	ld	r24, X+
     7da:	9c 91       	ld	r25, X
     7dc:	13 97       	sbiw	r26, 0x03	; 3
     7de:	01 97       	sbiw	r24, 0x01	; 1
     7e0:	13 96       	adiw	r26, 0x03	; 3
     7e2:	9c 93       	st	X, r25
     7e4:	8e 93       	st	-X, r24
     7e6:	12 97       	sbiw	r26, 0x02	; 2
     7e8:	20 30       	cpi	r18, 0x00	; 0
     7ea:	80 e0       	ldi	r24, 0x00	; 0
     7ec:	38 07       	cpc	r19, r24
     7ee:	80 e0       	ldi	r24, 0x00	; 0
     7f0:	48 07       	cpc	r20, r24
     7f2:	80 e4       	ldi	r24, 0x40	; 64
     7f4:	58 07       	cpc	r21, r24
     7f6:	58 f3       	brcs	.-42     	; 0x7ce <__unpack_f+0x66>
     7f8:	14 96       	adiw	r26, 0x04	; 4
     7fa:	2d 93       	st	X+, r18
     7fc:	3d 93       	st	X+, r19
     7fe:	4d 93       	st	X+, r20
     800:	5c 93       	st	X, r21
     802:	17 97       	sbiw	r26, 0x07	; 7
     804:	08 95       	ret
     806:	2f 3f       	cpi	r18, 0xFF	; 255
     808:	31 05       	cpc	r19, r1
     80a:	79 f4       	brne	.+30     	; 0x82a <__unpack_f+0xc2>
     80c:	41 15       	cp	r20, r1
     80e:	51 05       	cpc	r21, r1
     810:	61 05       	cpc	r22, r1
     812:	71 05       	cpc	r23, r1
     814:	19 f4       	brne	.+6      	; 0x81c <__unpack_f+0xb4>
     816:	84 e0       	ldi	r24, 0x04	; 4
     818:	8c 93       	st	X, r24
     81a:	08 95       	ret
     81c:	64 ff       	sbrs	r22, 4
     81e:	03 c0       	rjmp	.+6      	; 0x826 <__unpack_f+0xbe>
     820:	81 e0       	ldi	r24, 0x01	; 1
     822:	8c 93       	st	X, r24
     824:	12 c0       	rjmp	.+36     	; 0x84a <__unpack_f+0xe2>
     826:	1c 92       	st	X, r1
     828:	10 c0       	rjmp	.+32     	; 0x84a <__unpack_f+0xe2>
     82a:	2f 57       	subi	r18, 0x7F	; 127
     82c:	30 40       	sbci	r19, 0x00	; 0
     82e:	13 96       	adiw	r26, 0x03	; 3
     830:	3c 93       	st	X, r19
     832:	2e 93       	st	-X, r18
     834:	12 97       	sbiw	r26, 0x02	; 2
     836:	83 e0       	ldi	r24, 0x03	; 3
     838:	8c 93       	st	X, r24
     83a:	87 e0       	ldi	r24, 0x07	; 7
     83c:	44 0f       	add	r20, r20
     83e:	55 1f       	adc	r21, r21
     840:	66 1f       	adc	r22, r22
     842:	77 1f       	adc	r23, r23
     844:	8a 95       	dec	r24
     846:	d1 f7       	brne	.-12     	; 0x83c <__unpack_f+0xd4>
     848:	70 64       	ori	r23, 0x40	; 64
     84a:	14 96       	adiw	r26, 0x04	; 4
     84c:	4d 93       	st	X+, r20
     84e:	5d 93       	st	X+, r21
     850:	6d 93       	st	X+, r22
     852:	7c 93       	st	X, r23
     854:	17 97       	sbiw	r26, 0x07	; 7
     856:	08 95       	ret

00000858 <menu>:
#include "adc.h"

static FILE std_inout = FDEV_SETUP_STREAM(uart_printf, uart_scanf, _FDEV_SETUP_RW);

void menu(void) {
	puts("\r===================");
     858:	80 e0       	ldi	r24, 0x00	; 0
     85a:	91 e0       	ldi	r25, 0x01	; 1
     85c:	0e 94 11 0e 	call	0x1c22	; 0x1c22 <puts>
	puts("\r     Main Menu     ");
     860:	85 e1       	ldi	r24, 0x15	; 21
     862:	91 e0       	ldi	r25, 0x01	; 1
     864:	0e 94 11 0e 	call	0x1c22	; 0x1c22 <puts>
	puts("\r-------------------");
     868:	8a e2       	ldi	r24, 0x2A	; 42
     86a:	91 e0       	ldi	r25, 0x01	; 1
     86c:	0e 94 11 0e 	call	0x1c22	; 0x1c22 <puts>
	puts("\r1. Check GPIO");
     870:	8f e3       	ldi	r24, 0x3F	; 63
     872:	91 e0       	ldi	r25, 0x01	; 1
     874:	0e 94 11 0e 	call	0x1c22	; 0x1c22 <puts>
	puts("\r2. LCD");
     878:	8e e4       	ldi	r24, 0x4E	; 78
     87a:	91 e0       	ldi	r25, 0x01	; 1
     87c:	0e 94 11 0e 	call	0x1c22	; 0x1c22 <puts>
	puts("\r3. ADC");
     880:	86 e5       	ldi	r24, 0x56	; 86
     882:	91 e0       	ldi	r25, 0x01	; 1
     884:	0e 94 11 0e 	call	0x1c22	; 0x1c22 <puts>
	puts("\r4. Timer");
     888:	8e e5       	ldi	r24, 0x5E	; 94
     88a:	91 e0       	ldi	r25, 0x01	; 1
     88c:	0e 94 11 0e 	call	0x1c22	; 0x1c22 <puts>
	puts("\r5. PWM");
     890:	88 e6       	ldi	r24, 0x68	; 104
     892:	91 e0       	ldi	r25, 0x01	; 1
     894:	0e 94 11 0e 	call	0x1c22	; 0x1c22 <puts>
	puts("\r6. SPI");
     898:	80 e7       	ldi	r24, 0x70	; 112
     89a:	91 e0       	ldi	r25, 0x01	; 1
     89c:	0e 94 11 0e 	call	0x1c22	; 0x1c22 <puts>
	puts("\r7. I2C");
     8a0:	88 e7       	ldi	r24, 0x78	; 120
     8a2:	91 e0       	ldi	r25, 0x01	; 1
     8a4:	0e 94 11 0e 	call	0x1c22	; 0x1c22 <puts>
	puts("\r8. EEPROM");
     8a8:	80 e8       	ldi	r24, 0x80	; 128
     8aa:	91 e0       	ldi	r25, 0x01	; 1
     8ac:	0e 94 11 0e 	call	0x1c22	; 0x1c22 <puts>
	puts("\rQ. Exit");
     8b0:	8b e8       	ldi	r24, 0x8B	; 139
     8b2:	91 e0       	ldi	r25, 0x01	; 1
     8b4:	0e 94 11 0e 	call	0x1c22	; 0x1c22 <puts>
}
     8b8:	08 95       	ret

000008ba <checkADC>:

void checkADC(void)
{
     8ba:	4f 92       	push	r4
     8bc:	5f 92       	push	r5
     8be:	6f 92       	push	r6
     8c0:	7f 92       	push	r7
     8c2:	8f 92       	push	r8
     8c4:	9f 92       	push	r9
     8c6:	af 92       	push	r10
     8c8:	bf 92       	push	r11
     8ca:	cf 92       	push	r12
     8cc:	df 92       	push	r13
     8ce:	ef 92       	push	r14
     8d0:	ff 92       	push	r15
     8d2:	0f 93       	push	r16
     8d4:	1f 93       	push	r17
     8d6:	df 93       	push	r29
     8d8:	cf 93       	push	r28
     8da:	0f 92       	push	r0
     8dc:	cd b7       	in	r28, 0x3d	; 61
     8de:	de b7       	in	r29, 0x3e	; 62
	uint16_t	adc_value;
	char recieved_byte=0;
     8e0:	19 82       	std	Y+1, r1	; 0x01

	while(recieved_byte!='q'){
		for( int i=0; i<8; i++){
			adc_value = adc_read(i);
			printf("\rADC[%d] = %d, %f[V]", i, adc_value, adc_value*(5.0/1024.0));
     8e2:	34 e9       	ldi	r19, 0x94	; 148
     8e4:	43 2e       	mov	r4, r19
     8e6:	31 e0       	ldi	r19, 0x01	; 1
     8e8:	53 2e       	mov	r5, r19
		}
		printf("\rPress Q to exit this loop");
     8ea:	29 ea       	ldi	r18, 0xA9	; 169
     8ec:	62 2e       	mov	r6, r18
     8ee:	21 e0       	ldi	r18, 0x01	; 1
     8f0:	72 2e       	mov	r7, r18
    milliseconds can be achieved.
 */
void
_delay_loop_2(uint16_t __count)
{
	__asm__ volatile (
     8f2:	90 e9       	ldi	r25, 0x90	; 144
     8f4:	89 2e       	mov	r8, r25
     8f6:	91 e0       	ldi	r25, 0x01	; 1
     8f8:	99 2e       	mov	r9, r25
		_delay_ms(2000);
		if (uart_available()>= 0 )
			scanf("%c", &recieved_byte);
     8fa:	84 ec       	ldi	r24, 0xC4	; 196
     8fc:	a8 2e       	mov	r10, r24
     8fe:	81 e0       	ldi	r24, 0x01	; 1
     900:	b8 2e       	mov	r11, r24
     902:	6e 01       	movw	r12, r28
     904:	08 94       	sec
     906:	c1 1c       	adc	r12, r1
     908:	d1 1c       	adc	r13, r1
     90a:	60 c0       	rjmp	.+192    	; 0x9cc <__stack+0xcd>
void checkADC(void)
{
	uint16_t	adc_value;
	char recieved_byte=0;

	while(recieved_byte!='q'){
     90c:	ee 24       	eor	r14, r14
     90e:	ff 24       	eor	r15, r15
		for( int i=0; i<8; i++){
			adc_value = adc_read(i);
     910:	8e 2d       	mov	r24, r14
     912:	0e 94 98 05 	call	0xb30	; 0xb30 <adc_read>
			printf("\rADC[%d] = %d, %f[V]", i, adc_value, adc_value*(5.0/1024.0));
     916:	2d b7       	in	r18, 0x3d	; 61
     918:	3e b7       	in	r19, 0x3e	; 62
     91a:	2a 50       	subi	r18, 0x0A	; 10
     91c:	30 40       	sbci	r19, 0x00	; 0
     91e:	0f b6       	in	r0, 0x3f	; 63
     920:	f8 94       	cli
     922:	3e bf       	out	0x3e, r19	; 62
     924:	0f be       	out	0x3f, r0	; 63
     926:	2d bf       	out	0x3d, r18	; 61
     928:	0d b7       	in	r16, 0x3d	; 61
     92a:	1e b7       	in	r17, 0x3e	; 62
     92c:	0f 5f       	subi	r16, 0xFF	; 255
     92e:	1f 4f       	sbci	r17, 0xFF	; 255
     930:	ed b7       	in	r30, 0x3d	; 61
     932:	fe b7       	in	r31, 0x3e	; 62
     934:	52 82       	std	Z+2, r5	; 0x02
     936:	41 82       	std	Z+1, r4	; 0x01
     938:	f8 01       	movw	r30, r16
     93a:	f3 82       	std	Z+3, r15	; 0x03
     93c:	e2 82       	std	Z+2, r14	; 0x02
     93e:	95 83       	std	Z+5, r25	; 0x05
     940:	84 83       	std	Z+4, r24	; 0x04
     942:	a0 e0       	ldi	r26, 0x00	; 0
     944:	b0 e0       	ldi	r27, 0x00	; 0
     946:	bc 01       	movw	r22, r24
     948:	cd 01       	movw	r24, r26
     94a:	0e 94 17 02 	call	0x42e	; 0x42e <__floatunsisf>
     94e:	20 e0       	ldi	r18, 0x00	; 0
     950:	30 e0       	ldi	r19, 0x00	; 0
     952:	40 ea       	ldi	r20, 0xA0	; 160
     954:	5b e3       	ldi	r21, 0x3B	; 59
     956:	0e 94 1d 01 	call	0x23a	; 0x23a <__mulsf3>
     95a:	f8 01       	movw	r30, r16
     95c:	66 83       	std	Z+6, r22	; 0x06
     95e:	77 83       	std	Z+7, r23	; 0x07
     960:	80 87       	std	Z+8, r24	; 0x08
     962:	91 87       	std	Z+9, r25	; 0x09
     964:	0e 94 f5 0d 	call	0x1bea	; 0x1bea <printf>
{
	uint16_t	adc_value;
	char recieved_byte=0;

	while(recieved_byte!='q'){
		for( int i=0; i<8; i++){
     968:	08 94       	sec
     96a:	e1 1c       	adc	r14, r1
     96c:	f1 1c       	adc	r15, r1
     96e:	2d b7       	in	r18, 0x3d	; 61
     970:	3e b7       	in	r19, 0x3e	; 62
     972:	26 5f       	subi	r18, 0xF6	; 246
     974:	3f 4f       	sbci	r19, 0xFF	; 255
     976:	0f b6       	in	r0, 0x3f	; 63
     978:	f8 94       	cli
     97a:	3e bf       	out	0x3e, r19	; 62
     97c:	0f be       	out	0x3f, r0	; 63
     97e:	2d bf       	out	0x3d, r18	; 61
     980:	38 e0       	ldi	r19, 0x08	; 8
     982:	e3 16       	cp	r14, r19
     984:	f1 04       	cpc	r15, r1
     986:	21 f6       	brne	.-120    	; 0x910 <__stack+0x11>
			adc_value = adc_read(i);
			printf("\rADC[%d] = %d, %f[V]", i, adc_value, adc_value*(5.0/1024.0));
		}
		printf("\rPress Q to exit this loop");
     988:	00 d0       	rcall	.+0      	; 0x98a <__stack+0x8b>
     98a:	ed b7       	in	r30, 0x3d	; 61
     98c:	fe b7       	in	r31, 0x3e	; 62
     98e:	72 82       	std	Z+2, r7	; 0x02
     990:	61 82       	std	Z+1, r6	; 0x01
     992:	0e 94 f5 0d 	call	0x1bea	; 0x1bea <printf>
     996:	80 e2       	ldi	r24, 0x20	; 32
     998:	9e e4       	ldi	r25, 0x4E	; 78
     99a:	0f 90       	pop	r0
     99c:	0f 90       	pop	r0
     99e:	f4 01       	movw	r30, r8
     9a0:	31 97       	sbiw	r30, 0x01	; 1
     9a2:	f1 f7       	brne	.-4      	; 0x9a0 <__stack+0xa1>
		__ticks = (uint16_t) (__ms * 10.0);
		while(__ticks)
		{
			// wait 1/10 ms
			_delay_loop_2(((F_CPU) / 4e3) / 10);
			__ticks --;
     9a4:	01 97       	sbiw	r24, 0x01	; 1
		__ticks = 1;
	else if (__tmp > 65535)
	{
		//	__ticks = requested delay in 1/10 ms
		__ticks = (uint16_t) (__ms * 10.0);
		while(__ticks)
     9a6:	d9 f7       	brne	.-10     	; 0x99e <__stack+0x9f>
		_delay_ms(2000);
		if (uart_available()>= 0 )
     9a8:	0e 94 e4 08 	call	0x11c8	; 0x11c8 <uart_available>
     9ac:	97 fd       	sbrc	r25, 7
     9ae:	0e c0       	rjmp	.+28     	; 0x9cc <__stack+0xcd>
			scanf("%c", &recieved_byte);
     9b0:	00 d0       	rcall	.+0      	; 0x9b2 <__stack+0xb3>
     9b2:	00 d0       	rcall	.+0      	; 0x9b4 <__stack+0xb5>
     9b4:	ed b7       	in	r30, 0x3d	; 61
     9b6:	fe b7       	in	r31, 0x3e	; 62
     9b8:	b2 82       	std	Z+2, r11	; 0x02
     9ba:	a1 82       	std	Z+1, r10	; 0x01
     9bc:	d4 82       	std	Z+4, r13	; 0x04
     9be:	c3 82       	std	Z+3, r12	; 0x03
     9c0:	0e 94 46 0e 	call	0x1c8c	; 0x1c8c <scanf>
     9c4:	0f 90       	pop	r0
     9c6:	0f 90       	pop	r0
     9c8:	0f 90       	pop	r0
     9ca:	0f 90       	pop	r0
void checkADC(void)
{
	uint16_t	adc_value;
	char recieved_byte=0;

	while(recieved_byte!='q'){
     9cc:	89 81       	ldd	r24, Y+1	; 0x01
     9ce:	81 37       	cpi	r24, 0x71	; 113
     9d0:	09 f0       	breq	.+2      	; 0x9d4 <__stack+0xd5>
     9d2:	9c cf       	rjmp	.-200    	; 0x90c <__stack+0xd>
		printf("\rPress Q to exit this loop");
		_delay_ms(2000);
		if (uart_available()>= 0 )
			scanf("%c", &recieved_byte);
	}
}
     9d4:	0f 90       	pop	r0
     9d6:	cf 91       	pop	r28
     9d8:	df 91       	pop	r29
     9da:	1f 91       	pop	r17
     9dc:	0f 91       	pop	r16
     9de:	ff 90       	pop	r15
     9e0:	ef 90       	pop	r14
     9e2:	df 90       	pop	r13
     9e4:	cf 90       	pop	r12
     9e6:	bf 90       	pop	r11
     9e8:	af 90       	pop	r10
     9ea:	9f 90       	pop	r9
     9ec:	8f 90       	pop	r8
     9ee:	7f 90       	pop	r7
     9f0:	6f 90       	pop	r6
     9f2:	5f 90       	pop	r5
     9f4:	4f 90       	pop	r4
     9f6:	08 95       	ret

000009f8 <main>:

int main(void) {
     9f8:	8f 92       	push	r8
     9fa:	9f 92       	push	r9
     9fc:	af 92       	push	r10
     9fe:	bf 92       	push	r11
     a00:	cf 92       	push	r12
     a02:	df 92       	push	r13
     a04:	ef 92       	push	r14
     a06:	ff 92       	push	r15
     a08:	0f 93       	push	r16
     a0a:	1f 93       	push	r17
     a0c:	df 93       	push	r29
     a0e:	cf 93       	push	r28
     a10:	0f 92       	push	r0
     a12:	cd b7       	in	r28, 0x3d	; 61
     a14:	de b7       	in	r29, 0x3e	; 62
	char recieved_byte;

	stdout = stdin = &std_inout;
     a16:	8f ee       	ldi	r24, 0xEF	; 239
     a18:	92 e0       	ldi	r25, 0x02	; 2
     a1a:	90 93 44 03 	sts	0x0344, r25
     a1e:	80 93 43 03 	sts	0x0343, r24
     a22:	90 93 46 03 	sts	0x0346, r25
     a26:	80 93 45 03 	sts	0x0345, r24

	//checkGPIO();

	uart_init(UART_BAUD_SELECT(9600, 16000000L));
     a2a:	87 e6       	ldi	r24, 0x67	; 103
     a2c:	90 e0       	ldi	r25, 0x00	; 0
     a2e:	0e 94 74 08 	call	0x10e8	; 0x10e8 <uart_init>
	// UART가 인터럽트 방식을 사용하므로 반드시 globral interrupt를 enable해야 한다.
	sei();
     a32:	78 94       	sei

	while (1) {
		menu();
		printf("\rChoose menu : ");
     a34:	67 ec       	ldi	r22, 0xC7	; 199
     a36:	86 2e       	mov	r8, r22
     a38:	61 e0       	ldi	r22, 0x01	; 1
     a3a:	96 2e       	mov	r9, r22

		// wait keyinput
		while(uart_available()<=0);

		scanf("%c", &recieved_byte);
     a3c:	54 ec       	ldi	r21, 0xC4	; 196
     a3e:	a5 2e       	mov	r10, r21
     a40:	51 e0       	ldi	r21, 0x01	; 1
     a42:	b5 2e       	mov	r11, r21
     a44:	6e 01       	movw	r12, r28
     a46:	08 94       	sec
     a48:	c1 1c       	adc	r12, r1
     a4a:	d1 1c       	adc	r13, r1
		printf("%c\n", recieved_byte);
     a4c:	47 ed       	ldi	r20, 0xD7	; 215
     a4e:	e4 2e       	mov	r14, r20
     a50:	41 e0       	ldi	r20, 0x01	; 1
     a52:	f4 2e       	mov	r15, r20
     a54:	00 e9       	ldi	r16, 0x90	; 144
     a56:	11 e0       	ldi	r17, 0x01	; 1
	uart_init(UART_BAUD_SELECT(9600, 16000000L));
	// UART가 인터럽트 방식을 사용하므로 반드시 globral interrupt를 enable해야 한다.
	sei();

	while (1) {
		menu();
     a58:	0e 94 2c 04 	call	0x858	; 0x858 <menu>
		printf("\rChoose menu : ");
     a5c:	00 d0       	rcall	.+0      	; 0xa5e <main+0x66>
     a5e:	ad b7       	in	r26, 0x3d	; 61
     a60:	be b7       	in	r27, 0x3e	; 62
     a62:	12 96       	adiw	r26, 0x02	; 2
     a64:	9c 92       	st	X, r9
     a66:	8e 92       	st	-X, r8
     a68:	11 97       	sbiw	r26, 0x01	; 1
     a6a:	0e 94 f5 0d 	call	0x1bea	; 0x1bea <printf>
     a6e:	0f 90       	pop	r0
     a70:	0f 90       	pop	r0

		// wait keyinput
		while(uart_available()<=0);
     a72:	0e 94 e4 08 	call	0x11c8	; 0x11c8 <uart_available>
     a76:	18 16       	cp	r1, r24
     a78:	19 06       	cpc	r1, r25
     a7a:	dc f7       	brge	.-10     	; 0xa72 <main+0x7a>

		scanf("%c", &recieved_byte);
     a7c:	00 d0       	rcall	.+0      	; 0xa7e <main+0x86>
     a7e:	00 d0       	rcall	.+0      	; 0xa80 <main+0x88>
     a80:	ed b7       	in	r30, 0x3d	; 61
     a82:	fe b7       	in	r31, 0x3e	; 62
     a84:	b2 82       	std	Z+2, r11	; 0x02
     a86:	a1 82       	std	Z+1, r10	; 0x01
     a88:	d4 82       	std	Z+4, r13	; 0x04
     a8a:	c3 82       	std	Z+3, r12	; 0x03
     a8c:	0e 94 46 0e 	call	0x1c8c	; 0x1c8c <scanf>
		printf("%c\n", recieved_byte);
     a90:	ed b7       	in	r30, 0x3d	; 61
     a92:	fe b7       	in	r31, 0x3e	; 62
     a94:	31 96       	adiw	r30, 0x01	; 1
     a96:	ad b7       	in	r26, 0x3d	; 61
     a98:	be b7       	in	r27, 0x3e	; 62
     a9a:	12 96       	adiw	r26, 0x02	; 2
     a9c:	fc 92       	st	X, r15
     a9e:	ee 92       	st	-X, r14
     aa0:	11 97       	sbiw	r26, 0x01	; 1
     aa2:	89 81       	ldd	r24, Y+1	; 0x01
     aa4:	82 83       	std	Z+2, r24	; 0x02
     aa6:	13 82       	std	Z+3, r1	; 0x03
     aa8:	0e 94 f5 0d 	call	0x1bea	; 0x1bea <printf>
     aac:	80 ed       	ldi	r24, 0xD0	; 208
     aae:	97 e0       	ldi	r25, 0x07	; 7
     ab0:	0f 90       	pop	r0
     ab2:	0f 90       	pop	r0
     ab4:	0f 90       	pop	r0
     ab6:	0f 90       	pop	r0
     ab8:	f8 01       	movw	r30, r16
     aba:	31 97       	sbiw	r30, 0x01	; 1
     abc:	f1 f7       	brne	.-4      	; 0xaba <main+0xc2>
		{
			// wait 1/10 ms
			_delay_loop_2(((F_CPU) / 4e3) / 10);
			__ticks --;
     abe:	01 97       	sbiw	r24, 0x01	; 1
		__ticks = 1;
	else if (__tmp > 65535)
	{
		//	__ticks = requested delay in 1/10 ms
		__ticks = (uint16_t) (__ms * 10.0);
		while(__ticks)
     ac0:	d9 f7       	brne	.-10     	; 0xab8 <main+0xc0>
		_delay_ms(200);
		switch (recieved_byte) {
     ac2:	89 81       	ldd	r24, Y+1	; 0x01
     ac4:	83 33       	cpi	r24, 0x33	; 51
     ac6:	79 f0       	breq	.+30     	; 0xae6 <main+0xee>
     ac8:	84 33       	cpi	r24, 0x34	; 52
     aca:	28 f4       	brcc	.+10     	; 0xad6 <main+0xde>
     acc:	81 33       	cpi	r24, 0x31	; 49
     ace:	41 f0       	breq	.+16     	; 0xae0 <main+0xe8>
     ad0:	82 33       	cpi	r24, 0x32	; 50
     ad2:	11 f5       	brne	.+68     	; 0xb18 <main+0x120>
     ad4:	c1 cf       	rjmp	.-126    	; 0xa58 <main+0x60>
     ad6:	81 35       	cpi	r24, 0x51	; 81
     ad8:	59 f0       	breq	.+22     	; 0xaf0 <main+0xf8>
     ada:	81 37       	cpi	r24, 0x71	; 113
     adc:	e9 f4       	brne	.+58     	; 0xb18 <main+0x120>
     ade:	08 c0       	rjmp	.+16     	; 0xaf0 <main+0xf8>
		case '1': // GPIO
			checkGPIO();
     ae0:	0e 94 35 06 	call	0xc6a	; 0xc6a <checkGPIO>
     ae4:	b9 cf       	rjmp	.-142    	; 0xa58 <main+0x60>
		case '2':
			;
			//GetString();
			break;
		case '3':
			adc_init();
     ae6:	0e 94 91 05 	call	0xb22	; 0xb22 <adc_init>
			checkADC();
     aea:	0e 94 5d 04 	call	0x8ba	; 0x8ba <checkADC>
     aee:	b4 cf       	rjmp	.-152    	; 0xa58 <main+0x60>
				;
			break;
		case 'q':
		case 'Q':
			puts("\nGood Main\n");
     af0:	8b ed       	ldi	r24, 0xDB	; 219
     af2:	91 e0       	ldi	r25, 0x01	; 1
     af4:	0e 94 11 0e 	call	0x1c22	; 0x1c22 <puts>
			printf("\n");
		}
	}

	return 0; // never reached
}
     af8:	80 e0       	ldi	r24, 0x00	; 0
     afa:	90 e0       	ldi	r25, 0x00	; 0
     afc:	0f 90       	pop	r0
     afe:	cf 91       	pop	r28
     b00:	df 91       	pop	r29
     b02:	1f 91       	pop	r17
     b04:	0f 91       	pop	r16
     b06:	ff 90       	pop	r15
     b08:	ef 90       	pop	r14
     b0a:	df 90       	pop	r13
     b0c:	cf 90       	pop	r12
     b0e:	bf 90       	pop	r11
     b10:	af 90       	pop	r10
     b12:	9f 90       	pop	r9
     b14:	8f 90       	pop	r8
     b16:	08 95       	ret
		case 'q':
		case 'Q':
			puts("\nGood Main\n");
			return 0;
		default:
			printf("\n");
     b18:	8a e0       	ldi	r24, 0x0A	; 10
     b1a:	90 e0       	ldi	r25, 0x00	; 0
     b1c:	0e 94 0a 0e 	call	0x1c14	; 0x1c14 <putchar>
     b20:	9b cf       	rjmp	.-202    	; 0xa58 <main+0x60>

00000b22 <adc_init>:

#include "adc.h"

void adc_init() {
	// For Aref=AVcc;
	ADMUX = (1 << REFS0);
     b22:	80 e4       	ldi	r24, 0x40	; 64
     b24:	80 93 7c 00 	sts	0x007C, r24
	//Rrescalar div factor =128
	ADCSRA = (1 << ADEN) | (1 << ADPS2) | (1 << ADPS1) | (1 << ADPS0);
     b28:	87 e8       	ldi	r24, 0x87	; 135
     b2a:	80 93 7a 00 	sts	0x007A, r24
}
     b2e:	08 95       	ret

00000b30 <adc_read>:

uint16_t adc_read(uint8_t ch) {
	// Clear lower three bits and set them from chan
	ADMUX = (ADMUX & 0xF8) | (ch & 7);
     b30:	90 91 7c 00 	lds	r25, 0x007C
     b34:	87 70       	andi	r24, 0x07	; 7
     b36:	98 7f       	andi	r25, 0xF8	; 248
     b38:	89 2b       	or	r24, r25
     b3a:	80 93 7c 00 	sts	0x007C, r24

	//Start Single conversion
	ADCSRA |= (1 << ADSC);
     b3e:	80 91 7a 00 	lds	r24, 0x007A
     b42:	80 64       	ori	r24, 0x40	; 64
     b44:	80 93 7a 00 	sts	0x007A, r24

	//Wait for conversion to complete
	while (!(ADCSRA & (1 << ADIF)))
     b48:	80 91 7a 00 	lds	r24, 0x007A
     b4c:	84 ff       	sbrs	r24, 4
     b4e:	fc cf       	rjmp	.-8      	; 0xb48 <adc_read+0x18>

	//Clear ADIF by writing one to it
	//Note you may be wondering why we have write one to clear it
	//This is standard way of clearing bits in io as said in datasheets.
	//The code writes '1' but it result in setting bit to '0' !!!
	ADCSRA |= (1 << ADIF);
     b50:	80 91 7a 00 	lds	r24, 0x007A
     b54:	80 61       	ori	r24, 0x10	; 16
     b56:	80 93 7a 00 	sts	0x007A, r24

	return (ADC);
     b5a:	20 91 78 00 	lds	r18, 0x0078
     b5e:	30 91 79 00 	lds	r19, 0x0079
}
     b62:	c9 01       	movw	r24, r18
     b64:	08 95       	ret

00000b66 <pinMode>:
const uint8_t PROGMEM digital_pin_to_bit_mask_PGM[] = { _BV(0), /* 0, port D */
_BV(1), _BV(2), _BV(3), _BV(4), _BV(5), _BV(6), _BV(7), _BV(0), /* 8, port B */
_BV(1), _BV(2), _BV(3), _BV(4), _BV(5), _BV(0), /* 14, port C */
_BV(1), _BV(2), _BV(3), _BV(4), _BV(5), };

void pinMode(uint8_t pin, uint8_t mode) {
     b66:	cf 93       	push	r28
     b68:	df 93       	push	r29
	uint8_t bit = digitalPinToBitMask(pin);
     b6a:	48 2f       	mov	r20, r24
     b6c:	50 e0       	ldi	r21, 0x00	; 0
     b6e:	ca 01       	movw	r24, r20
     b70:	86 56       	subi	r24, 0x66	; 102
     b72:	9f 4f       	sbci	r25, 0xFF	; 255
     b74:	fc 01       	movw	r30, r24
     b76:	34 91       	lpm	r19, Z+
	uint8_t port = digitalPinToPort(pin);
     b78:	4a 57       	subi	r20, 0x7A	; 122
     b7a:	5f 4f       	sbci	r21, 0xFF	; 255
     b7c:	fa 01       	movw	r30, r20
     b7e:	84 91       	lpm	r24, Z+
	volatile uint8_t *reg, *out;

	if (port == NOT_A_PIN)
     b80:	88 23       	and	r24, r24
     b82:	69 f1       	breq	.+90     	; 0xbde <pinMode+0x78>
		return;

	// JWS: can I let the optimizer do this?
	reg = portModeRegister(port);
     b84:	90 e0       	ldi	r25, 0x00	; 0
     b86:	88 0f       	add	r24, r24
     b88:	99 1f       	adc	r25, r25
     b8a:	fc 01       	movw	r30, r24
     b8c:	e8 59       	subi	r30, 0x98	; 152
     b8e:	ff 4f       	sbci	r31, 0xFF	; 255
     b90:	a5 91       	lpm	r26, Z+
     b92:	b4 91       	lpm	r27, Z+
	out = portOutputRegister(port);
     b94:	fc 01       	movw	r30, r24
     b96:	ee 58       	subi	r30, 0x8E	; 142
     b98:	ff 4f       	sbci	r31, 0xFF	; 255
     b9a:	c5 91       	lpm	r28, Z+
     b9c:	d4 91       	lpm	r29, Z+

	if (mode == INPUT) {
     b9e:	66 23       	and	r22, r22
     ba0:	51 f4       	brne	.+20     	; 0xbb6 <pinMode+0x50>
		uint8_t oldSREG = SREG;
     ba2:	2f b7       	in	r18, 0x3f	; 63
		cli();
     ba4:	f8 94       	cli
		*reg &= ~bit;
     ba6:	8c 91       	ld	r24, X
     ba8:	93 2f       	mov	r25, r19
     baa:	90 95       	com	r25
     bac:	89 23       	and	r24, r25
     bae:	8c 93       	st	X, r24
		*out &= ~bit;
     bb0:	88 81       	ld	r24, Y
     bb2:	89 23       	and	r24, r25
     bb4:	0b c0       	rjmp	.+22     	; 0xbcc <pinMode+0x66>
		SREG = oldSREG;
	} else if (mode == INPUT_PULLUP) {
     bb6:	62 30       	cpi	r22, 0x02	; 2
     bb8:	61 f4       	brne	.+24     	; 0xbd2 <pinMode+0x6c>
		uint8_t oldSREG = SREG;
     bba:	2f b7       	in	r18, 0x3f	; 63
		cli();
     bbc:	f8 94       	cli
		*reg &= ~bit;
     bbe:	8c 91       	ld	r24, X
     bc0:	93 2f       	mov	r25, r19
     bc2:	90 95       	com	r25
     bc4:	89 23       	and	r24, r25
     bc6:	8c 93       	st	X, r24
		*out |= bit;
     bc8:	88 81       	ld	r24, Y
     bca:	83 2b       	or	r24, r19
     bcc:	88 83       	st	Y, r24
		SREG = oldSREG;
     bce:	2f bf       	out	0x3f, r18	; 63
     bd0:	06 c0       	rjmp	.+12     	; 0xbde <pinMode+0x78>
	} else {
		uint8_t oldSREG = SREG;
     bd2:	9f b7       	in	r25, 0x3f	; 63
		cli();
     bd4:	f8 94       	cli
		*reg |= bit;
     bd6:	8c 91       	ld	r24, X
     bd8:	83 2b       	or	r24, r19
     bda:	8c 93       	st	X, r24
		SREG = oldSREG;
     bdc:	9f bf       	out	0x3f, r25	; 63
	}
}
     bde:	df 91       	pop	r29
     be0:	cf 91       	pop	r28
     be2:	08 95       	ret

00000be4 <digitalWrite>:

void digitalWrite(uint8_t pin, uint8_t val) {
//	uint8_t timer = digitalPinToTimer(pin);
	uint8_t bit = digitalPinToBitMask(pin);
     be4:	28 2f       	mov	r18, r24
     be6:	30 e0       	ldi	r19, 0x00	; 0
     be8:	c9 01       	movw	r24, r18
     bea:	86 56       	subi	r24, 0x66	; 102
     bec:	9f 4f       	sbci	r25, 0xFF	; 255
     bee:	fc 01       	movw	r30, r24
     bf0:	94 91       	lpm	r25, Z+
	uint8_t port = digitalPinToPort(pin);
     bf2:	2a 57       	subi	r18, 0x7A	; 122
     bf4:	3f 4f       	sbci	r19, 0xFF	; 255
     bf6:	f9 01       	movw	r30, r18
     bf8:	84 91       	lpm	r24, Z+
	volatile uint8_t *out;

	if (port == NOT_A_PIN)
     bfa:	88 23       	and	r24, r24
     bfc:	a1 f0       	breq	.+40     	; 0xc26 <digitalWrite+0x42>
	// If the pin that support PWM output, we need to turn it off
	// before doing a digital write.
//	if (timer != NOT_ON_TIMER)
//		turnOffPWM(timer);

	out = portOutputRegister(port);
     bfe:	e8 2f       	mov	r30, r24
     c00:	f0 e0       	ldi	r31, 0x00	; 0
     c02:	ee 0f       	add	r30, r30
     c04:	ff 1f       	adc	r31, r31
     c06:	ee 58       	subi	r30, 0x8E	; 142
     c08:	ff 4f       	sbci	r31, 0xFF	; 255
     c0a:	a5 91       	lpm	r26, Z+
     c0c:	b4 91       	lpm	r27, Z+

	uint8_t oldSREG = SREG;
     c0e:	2f b7       	in	r18, 0x3f	; 63
	cli();
     c10:	f8 94       	cli

	if (val == LOW) {
     c12:	66 23       	and	r22, r22
     c14:	21 f4       	brne	.+8      	; 0xc1e <digitalWrite+0x3a>
		*out &= ~bit;
     c16:	8c 91       	ld	r24, X
     c18:	90 95       	com	r25
     c1a:	89 23       	and	r24, r25
     c1c:	02 c0       	rjmp	.+4      	; 0xc22 <digitalWrite+0x3e>
	} else {
		*out |= bit;
     c1e:	8c 91       	ld	r24, X
     c20:	89 2b       	or	r24, r25
     c22:	8c 93       	st	X, r24
	}

	SREG = oldSREG;
     c24:	2f bf       	out	0x3f, r18	; 63
     c26:	08 95       	ret

00000c28 <digitalRead>:
}

int digitalRead(uint8_t pin) {
//	uint8_t timer = digitalPinToTimer(pin);
	uint8_t bit = digitalPinToBitMask(pin);
     c28:	28 2f       	mov	r18, r24
     c2a:	30 e0       	ldi	r19, 0x00	; 0
     c2c:	c9 01       	movw	r24, r18
     c2e:	86 56       	subi	r24, 0x66	; 102
     c30:	9f 4f       	sbci	r25, 0xFF	; 255
     c32:	fc 01       	movw	r30, r24
     c34:	44 91       	lpm	r20, Z+
	uint8_t port = digitalPinToPort(pin);
     c36:	2a 57       	subi	r18, 0x7A	; 122
     c38:	3f 4f       	sbci	r19, 0xFF	; 255
     c3a:	f9 01       	movw	r30, r18
     c3c:	84 91       	lpm	r24, Z+

	if (port == NOT_A_PIN)
     c3e:	88 23       	and	r24, r24
     c40:	19 f4       	brne	.+6      	; 0xc48 <digitalRead+0x20>
     c42:	20 e0       	ldi	r18, 0x00	; 0
     c44:	30 e0       	ldi	r19, 0x00	; 0
     c46:	0f c0       	rjmp	.+30     	; 0xc66 <digitalRead+0x3e>
	// If the pin that support PWM output, we need to turn it off
	// before getting a digital reading.
//	if (timer != NOT_ON_TIMER)
//		turnOffPWM(timer);

	if (*portInputRegister(port) & bit)
     c48:	90 e0       	ldi	r25, 0x00	; 0
     c4a:	88 0f       	add	r24, r24
     c4c:	99 1f       	adc	r25, r25
     c4e:	84 58       	subi	r24, 0x84	; 132
     c50:	9f 4f       	sbci	r25, 0xFF	; 255
     c52:	fc 01       	movw	r30, r24
     c54:	a5 91       	lpm	r26, Z+
     c56:	b4 91       	lpm	r27, Z+
     c58:	8c 91       	ld	r24, X
     c5a:	20 e0       	ldi	r18, 0x00	; 0
     c5c:	30 e0       	ldi	r19, 0x00	; 0
     c5e:	84 23       	and	r24, r20
     c60:	11 f0       	breq	.+4      	; 0xc66 <digitalRead+0x3e>
     c62:	21 e0       	ldi	r18, 0x01	; 1
     c64:	30 e0       	ldi	r19, 0x00	; 0
		return HIGH;
	return LOW;
}
     c66:	c9 01       	movw	r24, r18
     c68:	08 95       	ret

00000c6a <checkGPIO>:

void checkGPIO(void) {
     c6a:	1f 93       	push	r17
     c6c:	cf 93       	push	r28
     c6e:	df 93       	push	r29
     c70:	12 e0       	ldi	r17, 0x02	; 2
     c72:	c0 e9       	ldi	r28, 0x90	; 144
     c74:	d1 e0       	ldi	r29, 0x01	; 1
	for (int i = 2; i <= 13; i++) {
		pinMode(i, OUTPUT);
     c76:	81 2f       	mov	r24, r17
     c78:	61 e0       	ldi	r22, 0x01	; 1
     c7a:	0e 94 b3 05 	call	0xb66	; 0xb66 <pinMode>
		digitalWrite(i, HIGH);
     c7e:	81 2f       	mov	r24, r17
     c80:	61 e0       	ldi	r22, 0x01	; 1
     c82:	0e 94 f2 05 	call	0xbe4	; 0xbe4 <digitalWrite>
     c86:	88 ee       	ldi	r24, 0xE8	; 232
     c88:	93 e0       	ldi	r25, 0x03	; 3
     c8a:	fe 01       	movw	r30, r28
     c8c:	31 97       	sbiw	r30, 0x01	; 1
     c8e:	f1 f7       	brne	.-4      	; 0xc8c <checkGPIO+0x22>
		{
			// wait 1/10 ms
			_delay_loop_2(((F_CPU) / 4e3) / 10);
			__ticks --;
     c90:	01 97       	sbiw	r24, 0x01	; 1
		__ticks = 1;
	else if (__tmp > 65535)
	{
		//	__ticks = requested delay in 1/10 ms
		__ticks = (uint16_t) (__ms * 10.0);
		while(__ticks)
     c92:	d9 f7       	brne	.-10     	; 0xc8a <checkGPIO+0x20>
     c94:	1f 5f       	subi	r17, 0xFF	; 255
		return HIGH;
	return LOW;
}

void checkGPIO(void) {
	for (int i = 2; i <= 13; i++) {
     c96:	1e 30       	cpi	r17, 0x0E	; 14
     c98:	71 f7       	brne	.-36     	; 0xc76 <checkGPIO+0xc>
     c9a:	12 e0       	ldi	r17, 0x02	; 2
     c9c:	c0 e9       	ldi	r28, 0x90	; 144
     c9e:	d1 e0       	ldi	r29, 0x01	; 1
		digitalWrite(i, HIGH);
		_delay_ms(100);
	}

	for (int i = 2; i <= 13; i++) {
		pinMode(i, OUTPUT);
     ca0:	81 2f       	mov	r24, r17
     ca2:	61 e0       	ldi	r22, 0x01	; 1
     ca4:	0e 94 b3 05 	call	0xb66	; 0xb66 <pinMode>
		digitalWrite(i, LOW);
     ca8:	81 2f       	mov	r24, r17
     caa:	60 e0       	ldi	r22, 0x00	; 0
     cac:	0e 94 f2 05 	call	0xbe4	; 0xbe4 <digitalWrite>
     cb0:	88 ee       	ldi	r24, 0xE8	; 232
     cb2:	93 e0       	ldi	r25, 0x03	; 3
     cb4:	fe 01       	movw	r30, r28
     cb6:	31 97       	sbiw	r30, 0x01	; 1
     cb8:	f1 f7       	brne	.-4      	; 0xcb6 <checkGPIO+0x4c>
		{
			// wait 1/10 ms
			_delay_loop_2(((F_CPU) / 4e3) / 10);
			__ticks --;
     cba:	01 97       	sbiw	r24, 0x01	; 1
		__ticks = 1;
	else if (__tmp > 65535)
	{
		//	__ticks = requested delay in 1/10 ms
		__ticks = (uint16_t) (__ms * 10.0);
		while(__ticks)
     cbc:	d9 f7       	brne	.-10     	; 0xcb4 <checkGPIO+0x4a>
     cbe:	1f 5f       	subi	r17, 0xFF	; 255
		pinMode(i, OUTPUT);
		digitalWrite(i, HIGH);
		_delay_ms(100);
	}

	for (int i = 2; i <= 13; i++) {
     cc0:	1e 30       	cpi	r17, 0x0E	; 14
     cc2:	71 f7       	brne	.-36     	; 0xca0 <checkGPIO+0x36>
		pinMode(i, OUTPUT);
		digitalWrite(i, LOW);
		_delay_ms(100);
	}
}
     cc4:	df 91       	pop	r29
     cc6:	cf 91       	pop	r28
     cc8:	1f 91       	pop	r17
     cca:	08 95       	ret

00000ccc <Send4bits>:
				0x03, 0x07, 0x0F, 0x1F, 0x0F, 0x07, 0x03, 0x00, // 6. rewind arrow
				0x18, 0x1C, 0x1E, 0x1F, 0x1E, 0x1C, 0x18, 0x00 // 7. fast-forward arrow
		};

void Send4bits(uint8_t cmd) {
	LDP = 0;
     ccc:	1b b8       	out	0x0b, r1	; 11
	if (cmd & 0x01)
     cce:	80 fd       	sbrc	r24, 0
		LDP |= _BV(LCD_D4);
     cd0:	5e 9a       	sbi	0x0b, 6	; 11
	cmd >>= 1;
     cd2:	86 95       	lsr	r24
	if (cmd & 0x01)
     cd4:	80 fd       	sbrc	r24, 0
		LDP |= _BV(LCD_D5);
     cd6:	5d 9a       	sbi	0x0b, 5	; 11
	cmd >>= 1;
     cd8:	86 95       	lsr	r24
	if (cmd & 0x01)
     cda:	80 fd       	sbrc	r24, 0
		LDP |= _BV(LCD_D6);
     cdc:	5c 9a       	sbi	0x0b, 4	; 11
	cmd >>= 1;
	if (cmd & 0x01)
     cde:	86 95       	lsr	r24
     ce0:	80 fd       	sbrc	r24, 0
		LDP |= _BV(LCD_D7);
     ce2:	5b 9a       	sbi	0x0b, 3	; 11
     ce4:	08 95       	ret

00000ce6 <LCDsendChar>:
}

void LCDsendChar(uint8_t ch)		//Sends Char to LCD
{
     ce6:	ff 92       	push	r15
     ce8:	0f 93       	push	r16
     cea:	1f 93       	push	r17
     cec:	f8 2e       	mov	r15, r24

#ifdef LCD_4bit
	//4 bit part
	Send4bits((ch & 0xF0)>>4);
     cee:	82 95       	swap	r24
     cf0:	8f 70       	andi	r24, 0x0F	; 15
     cf2:	0e 94 66 06 	call	0xccc	; 0xccc <Send4bits>
	LCP |= 1 << LCD_RS;
     cf6:	5a 9a       	sbi	0x0b, 2	; 11
	LCP |= 1 << LCD_E;
     cf8:	58 9a       	sbi	0x0b, 0	; 11
     cfa:	00 e4       	ldi	r16, 0x40	; 64
     cfc:	1f e1       	ldi	r17, 0x1F	; 31
     cfe:	c8 01       	movw	r24, r16
     d00:	01 97       	sbiw	r24, 0x01	; 1
     d02:	f1 f7       	brne	.-4      	; 0xd00 <LCDsendChar+0x1a>
	_delay_ms(2);
	LCP &= ~(1 << LCD_E);
     d04:	58 98       	cbi	0x0b, 0	; 11
	LCP &= ~(1 << LCD_RS);
     d06:	5a 98       	cbi	0x0b, 2	; 11
     d08:	c8 01       	movw	r24, r16
     d0a:	01 97       	sbiw	r24, 0x01	; 1
     d0c:	f1 f7       	brne	.-4      	; 0xd0a <LCDsendChar+0x24>
	_delay_ms(2);

	Send4bits((ch & 0x0F));
     d0e:	8f 2d       	mov	r24, r15
     d10:	8f 70       	andi	r24, 0x0F	; 15
     d12:	0e 94 66 06 	call	0xccc	; 0xccc <Send4bits>
	LCP |= 1 << LCD_RS;
     d16:	5a 9a       	sbi	0x0b, 2	; 11
	LCP |= 1 << LCD_E;
     d18:	58 9a       	sbi	0x0b, 0	; 11
     d1a:	c8 01       	movw	r24, r16
     d1c:	01 97       	sbiw	r24, 0x01	; 1
     d1e:	f1 f7       	brne	.-4      	; 0xd1c <LCDsendChar+0x36>
	_delay_ms(2);
	LCP &= ~(1 << LCD_E);
     d20:	58 98       	cbi	0x0b, 0	; 11
	LCP &= ~(1 << LCD_RS);
     d22:	5a 98       	cbi	0x0b, 2	; 11
     d24:	c8 01       	movw	r24, r16
     d26:	01 97       	sbiw	r24, 0x01	; 1
     d28:	f1 f7       	brne	.-4      	; 0xd26 <LCDsendChar+0x40>
	_delay_ms(2);
	LCP &= ~(1 << LCD_E);
	LCP &= ~(1 << LCD_RS);
	_delay_ms(2);
#endif
}
     d2a:	1f 91       	pop	r17
     d2c:	0f 91       	pop	r16
     d2e:	ff 90       	pop	r15
     d30:	08 95       	ret

00000d32 <LCDsendCommand>:

void LCDsendCommand(uint8_t cmd)	//Sends Command to LCD
{
     d32:	ff 92       	push	r15
     d34:	0f 93       	push	r16
     d36:	1f 93       	push	r17
     d38:	f8 2e       	mov	r15, r24
#ifdef LCD_4bit
	//4 bit part
	Send4bits((cmd & 0xF0)>>4);
     d3a:	82 95       	swap	r24
     d3c:	8f 70       	andi	r24, 0x0F	; 15
     d3e:	0e 94 66 06 	call	0xccc	; 0xccc <Send4bits>
	LCP |= 1 << LCD_E;
     d42:	58 9a       	sbi	0x0b, 0	; 11
     d44:	00 e4       	ldi	r16, 0x40	; 64
     d46:	1f e1       	ldi	r17, 0x1F	; 31
     d48:	c8 01       	movw	r24, r16
     d4a:	01 97       	sbiw	r24, 0x01	; 1
     d4c:	f1 f7       	brne	.-4      	; 0xd4a <LCDsendCommand+0x18>
	_delay_ms(2);
	LCP &= ~(1 << LCD_E);
     d4e:	58 98       	cbi	0x0b, 0	; 11
     d50:	c8 01       	movw	r24, r16
     d52:	01 97       	sbiw	r24, 0x01	; 1
     d54:	f1 f7       	brne	.-4      	; 0xd52 <LCDsendCommand+0x20>
	_delay_ms(2);

	Send4bits(cmd & 0x0F);
     d56:	8f 2d       	mov	r24, r15
     d58:	8f 70       	andi	r24, 0x0F	; 15
     d5a:	0e 94 66 06 	call	0xccc	; 0xccc <Send4bits>
	LCP |= 1 << LCD_E;
     d5e:	58 9a       	sbi	0x0b, 0	; 11
     d60:	c8 01       	movw	r24, r16
     d62:	01 97       	sbiw	r24, 0x01	; 1
     d64:	f1 f7       	brne	.-4      	; 0xd62 <LCDsendCommand+0x30>
	_delay_ms(2);
	LCP &= ~(1 << LCD_E);
     d66:	58 98       	cbi	0x0b, 0	; 11
     d68:	c8 01       	movw	r24, r16
     d6a:	01 97       	sbiw	r24, 0x01	; 1
     d6c:	f1 f7       	brne	.-4      	; 0xd6a <LCDsendCommand+0x38>
	LCP |= 1 << LCD_E;
	_delay_ms(2);
	LCP &= ~(1 << LCD_E);
	_delay_ms(2);
#endif
}
     d6e:	1f 91       	pop	r17
     d70:	0f 91       	pop	r16
     d72:	ff 90       	pop	r15
     d74:	08 95       	ret

00000d76 <LCDclr>:

#endif
}
void LCDclr(void)				//Clears LCD
{
	LCDsendCommand(1 << LCD_CLR);
     d76:	81 e0       	ldi	r24, 0x01	; 1
     d78:	0e 94 99 06 	call	0xd32	; 0xd32 <LCDsendCommand>
}
     d7c:	08 95       	ret

00000d7e <LCDhome>:
void LCDhome(void)			//LCD cursor home
{
	LCDsendCommand(1 << LCD_HOME);
     d7e:	82 e0       	ldi	r24, 0x02	; 2
     d80:	0e 94 99 06 	call	0xd32	; 0xd32 <LCDsendCommand>
}
     d84:	08 95       	ret

00000d86 <LCDstring>:
void LCDstring(uint8_t* data, uint8_t nBytes)	//Outputs string to LCD
{
     d86:	0f 93       	push	r16
     d88:	1f 93       	push	r17
     d8a:	cf 93       	push	r28
     d8c:	df 93       	push	r29
     d8e:	06 2f       	mov	r16, r22
	register uint8_t i;

	// check to make sure we have a good pointer
	if (!data)
     d90:	00 97       	sbiw	r24, 0x00	; 0
     d92:	49 f0       	breq	.+18     	; 0xda6 <LCDstring+0x20>
		return;
     d94:	ec 01       	movw	r28, r24
     d96:	10 e0       	ldi	r17, 0x00	; 0
     d98:	04 c0       	rjmp	.+8      	; 0xda2 <LCDstring+0x1c>

	// print data
	for (i = 0; i < nBytes; i++) {
		LCDsendChar(data[i]);
     d9a:	89 91       	ld	r24, Y+
     d9c:	0e 94 73 06 	call	0xce6	; 0xce6 <LCDsendChar>
	// check to make sure we have a good pointer
	if (!data)
		return;

	// print data
	for (i = 0; i < nBytes; i++) {
     da0:	1f 5f       	subi	r17, 0xFF	; 255
     da2:	10 17       	cp	r17, r16
     da4:	d0 f3       	brcs	.-12     	; 0xd9a <LCDstring+0x14>
		LCDsendChar(data[i]);
	}
}
     da6:	df 91       	pop	r29
     da8:	cf 91       	pop	r28
     daa:	1f 91       	pop	r17
     dac:	0f 91       	pop	r16
     dae:	08 95       	ret

00000db0 <LCDGotoXY>:
void LCDGotoXY(uint8_t x, uint8_t y)	//Cursor to X Y position
{
	register uint8_t DDRAMAddr;
	// remap lines into proper order
	switch (y) {
     db0:	62 30       	cpi	r22, 0x02	; 2
     db2:	31 f0       	breq	.+12     	; 0xdc0 <LCDGotoXY+0x10>
     db4:	63 30       	cpi	r22, 0x03	; 3
     db6:	31 f0       	breq	.+12     	; 0xdc4 <LCDGotoXY+0x14>
     db8:	61 30       	cpi	r22, 0x01	; 1
     dba:	29 f4       	brne	.+10     	; 0xdc6 <LCDGotoXY+0x16>
	case 0:
		DDRAMAddr = LCD_LINE0_DDRAMADDR + x;
		break;
	case 1:
		DDRAMAddr = LCD_LINE1_DDRAMADDR + x;
     dbc:	80 5c       	subi	r24, 0xC0	; 192
     dbe:	03 c0       	rjmp	.+6      	; 0xdc6 <LCDGotoXY+0x16>
		break;
	case 2:
		DDRAMAddr = LCD_LINE2_DDRAMADDR + x;
     dc0:	8c 5e       	subi	r24, 0xEC	; 236
     dc2:	01 c0       	rjmp	.+2      	; 0xdc6 <LCDGotoXY+0x16>
		break;
	case 3:
		DDRAMAddr = LCD_LINE3_DDRAMADDR + x;
     dc4:	8c 5a       	subi	r24, 0xAC	; 172
		break;
	default:
		DDRAMAddr = LCD_LINE0_DDRAMADDR + x;
	}
	// set data address
	LCDsendCommand(1 << LCD_DDRAM | DDRAMAddr);
     dc6:	80 68       	ori	r24, 0x80	; 128
     dc8:	0e 94 99 06 	call	0xd32	; 0xd32 <LCDsendCommand>

}
     dcc:	08 95       	ret

00000dce <CopyStringtoLCD>:
//Copies string from flash memory to LCD at x y position
//const uint8_t welcomeln1[] PROGMEM="AVR LCD DEMO\0";
//CopyStringtoLCD(welcomeln1, 3, 1);
void CopyStringtoLCD(const uint8_t *FlashLoc, uint8_t x, uint8_t y) {
     dce:	1f 93       	push	r17
     dd0:	cf 93       	push	r28
     dd2:	df 93       	push	r29
     dd4:	ec 01       	movw	r28, r24
     dd6:	86 2f       	mov	r24, r22
	uint8_t i;
	LCDGotoXY(x, y);
     dd8:	64 2f       	mov	r22, r20
     dda:	0e 94 d8 06 	call	0xdb0	; 0xdb0 <LCDGotoXY>
     dde:	10 e0       	ldi	r17, 0x00	; 0
     de0:	03 c0       	rjmp	.+6      	; 0xde8 <CopyStringtoLCD+0x1a>
	for (i = 0; (uint8_t) pgm_read_byte(&FlashLoc[i]); i++) {
		LCDsendChar((uint8_t) pgm_read_byte(&FlashLoc[i]));
     de2:	0e 94 73 06 	call	0xce6	; 0xce6 <LCDsendChar>
//const uint8_t welcomeln1[] PROGMEM="AVR LCD DEMO\0";
//CopyStringtoLCD(welcomeln1, 3, 1);
void CopyStringtoLCD(const uint8_t *FlashLoc, uint8_t x, uint8_t y) {
	uint8_t i;
	LCDGotoXY(x, y);
	for (i = 0; (uint8_t) pgm_read_byte(&FlashLoc[i]); i++) {
     de6:	1f 5f       	subi	r17, 0xFF	; 255
     de8:	fe 01       	movw	r30, r28
     dea:	e1 0f       	add	r30, r17
     dec:	f1 1d       	adc	r31, r1
     dee:	84 91       	lpm	r24, Z+
     df0:	88 23       	and	r24, r24
     df2:	b9 f7       	brne	.-18     	; 0xde2 <CopyStringtoLCD+0x14>
		LCDsendChar((uint8_t) pgm_read_byte(&FlashLoc[i]));
	}
}
     df4:	df 91       	pop	r29
     df6:	cf 91       	pop	r28
     df8:	1f 91       	pop	r17
     dfa:	08 95       	ret

00000dfc <LCDdefinechar>:
 0b00000000,
 0b00000000
 };
 LCDdefinechar(backslash,0);
 */
void LCDdefinechar(const uint8_t *pc, uint8_t char_code) {
     dfc:	ef 92       	push	r14
     dfe:	ff 92       	push	r15
     e00:	0f 93       	push	r16
     e02:	1f 93       	push	r17
     e04:	cf 93       	push	r28
     e06:	df 93       	push	r29
     e08:	7c 01       	movw	r14, r24
     e0a:	16 2f       	mov	r17, r22
	uint8_t a, pcc;
	uint16_t i;
	a = (char_code << 3) | 0x40;
     e0c:	11 0f       	add	r17, r17
     e0e:	11 0f       	add	r17, r17
     e10:	11 0f       	add	r17, r17
     e12:	10 64       	ori	r17, 0x40	; 64
     e14:	c0 e0       	ldi	r28, 0x00	; 0
     e16:	d0 e0       	ldi	r29, 0x00	; 0
	for (i = 0; i < 8; i++) {
		pcc = pgm_read_byte(&pc[i]);
     e18:	f7 01       	movw	r30, r14
     e1a:	ec 0f       	add	r30, r28
     e1c:	fd 1f       	adc	r31, r29
     e1e:	04 91       	lpm	r16, Z+
		LCDsendCommand(a++);
     e20:	81 2f       	mov	r24, r17
     e22:	8c 0f       	add	r24, r28
     e24:	0e 94 99 06 	call	0xd32	; 0xd32 <LCDsendCommand>
		LCDsendChar(pcc);
     e28:	80 2f       	mov	r24, r16
     e2a:	0e 94 73 06 	call	0xce6	; 0xce6 <LCDsendChar>
 */
void LCDdefinechar(const uint8_t *pc, uint8_t char_code) {
	uint8_t a, pcc;
	uint16_t i;
	a = (char_code << 3) | 0x40;
	for (i = 0; i < 8; i++) {
     e2e:	21 96       	adiw	r28, 0x01	; 1
     e30:	c8 30       	cpi	r28, 0x08	; 8
     e32:	d1 05       	cpc	r29, r1
     e34:	89 f7       	brne	.-30     	; 0xe18 <LCDdefinechar+0x1c>
		pcc = pgm_read_byte(&pc[i]);
		LCDsendCommand(a++);
		LCDsendChar(pcc);
	}
}
     e36:	df 91       	pop	r29
     e38:	cf 91       	pop	r28
     e3a:	1f 91       	pop	r17
     e3c:	0f 91       	pop	r16
     e3e:	ff 90       	pop	r15
     e40:	ef 90       	pop	r14
     e42:	08 95       	ret

00000e44 <LCDinit>:
	LCP &= ~(1 << LCD_E);
	_delay_ms(2);
#endif
}
void LCDinit(void)	//Initializes LCD
{
     e44:	1f 93       	push	r17
     e46:	cf 93       	push	r28
     e48:	df 93       	push	r29
     e4a:	80 e6       	ldi	r24, 0x60	; 96
     e4c:	9a ee       	ldi	r25, 0xEA	; 234
     e4e:	01 97       	sbiw	r24, 0x01	; 1
     e50:	f1 f7       	brne	.-4      	; 0xe4e <LCDinit+0xa>
#ifdef LCD_4bit
	//4 bit part
	_delay_ms(15);
	LDP = 0x00;
     e52:	1b b8       	out	0x0b, r1	; 11
	LCP = 0x00;
     e54:	1b b8       	out	0x0b, r1	; 11
	LDDR |= 1 << LCD_D7 | 1 << LCD_D6 | 1 << LCD_D5 | 1 << LCD_D4;
     e56:	8a b1       	in	r24, 0x0a	; 10
     e58:	88 67       	ori	r24, 0x78	; 120
     e5a:	8a b9       	out	0x0a, r24	; 10
	LCDR |= 1 << LCD_E | 1 << LCD_RW | 1 << LCD_RS;
     e5c:	8a b1       	in	r24, 0x0a	; 10
     e5e:	87 60       	ori	r24, 0x07	; 7
     e60:	8a b9       	out	0x0a, r24	; 10
	//---------one------
	LDP = 0 << LCD_D7 | 0 << LCD_D6 | 1 << LCD_D5 | 1 << LCD_D4;	//4 bit mode
     e62:	80 e6       	ldi	r24, 0x60	; 96
     e64:	8b b9       	out	0x0b, r24	; 11
	LCP |= 1 << LCD_E | 0 << LCD_RW | 0 << LCD_RS;
     e66:	58 9a       	sbi	0x0b, 0	; 11
     e68:	20 e4       	ldi	r18, 0x40	; 64
     e6a:	3f e1       	ldi	r19, 0x1F	; 31
     e6c:	f9 01       	movw	r30, r18
     e6e:	31 97       	sbiw	r30, 0x01	; 1
     e70:	f1 f7       	brne	.-4      	; 0xe6e <LCDinit+0x2a>
	_delay_ms(2);
	LCP &= ~(1 << LCD_E);
     e72:	58 98       	cbi	0x0b, 0	; 11
     e74:	f9 01       	movw	r30, r18
     e76:	31 97       	sbiw	r30, 0x01	; 1
     e78:	f1 f7       	brne	.-4      	; 0xe76 <LCDinit+0x32>
	_delay_ms(2);
	//-----------two-----------
	LDP = 0 << LCD_D7 | 0 << LCD_D6 | 1 << LCD_D5 | 1 << LCD_D4;	//4 bit mode
     e7a:	8b b9       	out	0x0b, r24	; 11
	LCP |= 1 << LCD_E | 0 << LCD_RW | 0 << LCD_RS;
     e7c:	58 9a       	sbi	0x0b, 0	; 11
     e7e:	c9 01       	movw	r24, r18
     e80:	01 97       	sbiw	r24, 0x01	; 1
     e82:	f1 f7       	brne	.-4      	; 0xe80 <LCDinit+0x3c>
	_delay_ms(2);
	LCP &= ~(1 << LCD_E);
     e84:	58 98       	cbi	0x0b, 0	; 11
     e86:	c9 01       	movw	r24, r18
     e88:	01 97       	sbiw	r24, 0x01	; 1
     e8a:	f1 f7       	brne	.-4      	; 0xe88 <LCDinit+0x44>
	_delay_ms(2);
	//-------three-------------
	LDP = 0 << LCD_D7 | 0 << LCD_D6 | 1 << LCD_D5 | 0 << LCD_D4;	//4 bit mode
     e8c:	80 e2       	ldi	r24, 0x20	; 32
     e8e:	8b b9       	out	0x0b, r24	; 11
	LCP |= 1 << LCD_E | 0 << LCD_RW | 0 << LCD_RS;
     e90:	58 9a       	sbi	0x0b, 0	; 11
     e92:	c9 01       	movw	r24, r18
     e94:	01 97       	sbiw	r24, 0x01	; 1
     e96:	f1 f7       	brne	.-4      	; 0xe94 <LCDinit+0x50>
	_delay_ms(2);
	LCP &= ~(1 << LCD_E);
     e98:	58 98       	cbi	0x0b, 0	; 11
     e9a:	c9 01       	movw	r24, r18
     e9c:	01 97       	sbiw	r24, 0x01	; 1
     e9e:	f1 f7       	brne	.-4      	; 0xe9c <LCDinit+0x58>
	_delay_ms(2);
	//--------4 bit--dual line---------------
	LCDsendCommand(0b00101000);
     ea0:	88 e2       	ldi	r24, 0x28	; 40
     ea2:	0e 94 99 06 	call	0xd32	; 0xd32 <LCDsendCommand>
	//-----increment address, invisible cursor shift------
	LCDsendCommand(0b00001100);
     ea6:	8c e0       	ldi	r24, 0x0C	; 12
     ea8:	0e 94 99 06 	call	0xd32	; 0xd32 <LCDsendCommand>
     eac:	ce ea       	ldi	r28, 0xAE	; 174
     eae:	d0 e0       	ldi	r29, 0x00	; 0
     eb0:	60 e0       	ldi	r22, 0x00	; 0
	//init 8 custom chars
	uint8_t ch = 0, chn = 0;
	while (ch < 64) {
		LCDdefinechar((LcdCustomChar + ch), chn++);
     eb2:	16 2f       	mov	r17, r22
     eb4:	1f 5f       	subi	r17, 0xFF	; 255
     eb6:	ce 01       	movw	r24, r28
     eb8:	0e 94 fe 06 	call	0xdfc	; 0xdfc <LCDdefinechar>
     ebc:	28 96       	adiw	r28, 0x08	; 8
     ebe:	61 2f       	mov	r22, r17
	LCDsendCommand(0b00101000);
	//-----increment address, invisible cursor shift------
	LCDsendCommand(0b00001100);
	//init 8 custom chars
	uint8_t ch = 0, chn = 0;
	while (ch < 64) {
     ec0:	18 30       	cpi	r17, 0x08	; 8
     ec2:	b9 f7       	brne	.-18     	; 0xeb2 <LCDinit+0x6e>
		LCDdefinechar((LcdCustomChar + ch), chn++);
		ch = ch + 8;
	}

#endif
}
     ec4:	df 91       	pop	r29
     ec6:	cf 91       	pop	r28
     ec8:	1f 91       	pop	r17
     eca:	08 95       	ret

00000ecc <LCDshiftLeft>:
		LCDsendChar(pcc);
	}
}

void LCDshiftLeft(uint8_t n)	//Scrol n of characters Right
{
     ecc:	0f 93       	push	r16
     ece:	1f 93       	push	r17
     ed0:	08 2f       	mov	r16, r24
     ed2:	10 e0       	ldi	r17, 0x00	; 0
     ed4:	04 c0       	rjmp	.+8      	; 0xede <LCDshiftLeft+0x12>
	for (uint8_t i = 0; i < n; i++) {
		LCDsendCommand(0x1E);
     ed6:	8e e1       	ldi	r24, 0x1E	; 30
     ed8:	0e 94 99 06 	call	0xd32	; 0xd32 <LCDsendCommand>
	}
}

void LCDshiftLeft(uint8_t n)	//Scrol n of characters Right
{
	for (uint8_t i = 0; i < n; i++) {
     edc:	1f 5f       	subi	r17, 0xFF	; 255
     ede:	10 17       	cp	r17, r16
     ee0:	d0 f3       	brcs	.-12     	; 0xed6 <LCDshiftLeft+0xa>
		LCDsendCommand(0x1E);
	}
}
     ee2:	1f 91       	pop	r17
     ee4:	0f 91       	pop	r16
     ee6:	08 95       	ret

00000ee8 <LCDshiftRight>:
void LCDshiftRight(uint8_t n)	//Scrol n of characters Left
{
     ee8:	0f 93       	push	r16
     eea:	1f 93       	push	r17
     eec:	08 2f       	mov	r16, r24
     eee:	10 e0       	ldi	r17, 0x00	; 0
     ef0:	04 c0       	rjmp	.+8      	; 0xefa <LCDshiftRight+0x12>
	for (uint8_t i = 0; i < n; i++) {
		LCDsendCommand(0x18);
     ef2:	88 e1       	ldi	r24, 0x18	; 24
     ef4:	0e 94 99 06 	call	0xd32	; 0xd32 <LCDsendCommand>
		LCDsendCommand(0x1E);
	}
}
void LCDshiftRight(uint8_t n)	//Scrol n of characters Left
{
	for (uint8_t i = 0; i < n; i++) {
     ef8:	1f 5f       	subi	r17, 0xFF	; 255
     efa:	10 17       	cp	r17, r16
     efc:	d0 f3       	brcs	.-12     	; 0xef2 <LCDshiftRight+0xa>
		LCDsendCommand(0x18);
	}
}
     efe:	1f 91       	pop	r17
     f00:	0f 91       	pop	r16
     f02:	08 95       	ret

00000f04 <LCDcursorOn>:
void LCDcursorOn(void) //displays LCD cursor
{
	LCDsendCommand(0x0E);
     f04:	8e e0       	ldi	r24, 0x0E	; 14
     f06:	0e 94 99 06 	call	0xd32	; 0xd32 <LCDsendCommand>
}
     f0a:	08 95       	ret

00000f0c <LCDcursorOnBlink>:
void LCDcursorOnBlink(void)	//displays LCD blinking cursor
{
	LCDsendCommand(0x0F);
     f0c:	8f e0       	ldi	r24, 0x0F	; 15
     f0e:	0e 94 99 06 	call	0xd32	; 0xd32 <LCDsendCommand>
}
     f12:	08 95       	ret

00000f14 <LCDcursorOFF>:
void LCDcursorOFF(void)	//turns OFF cursor
{
	LCDsendCommand(0x0C);
     f14:	8c e0       	ldi	r24, 0x0C	; 12
     f16:	0e 94 99 06 	call	0xd32	; 0xd32 <LCDsendCommand>
}
     f1a:	08 95       	ret

00000f1c <LCDblank>:
void LCDblank(void)		//blanks LCD
{
	LCDsendCommand(0x08);
     f1c:	88 e0       	ldi	r24, 0x08	; 8
     f1e:	0e 94 99 06 	call	0xd32	; 0xd32 <LCDsendCommand>
}
     f22:	08 95       	ret

00000f24 <LCDvisible>:
void LCDvisible(void)		//Shows LCD
{
	LCDsendCommand(0x0C);
     f24:	8c e0       	ldi	r24, 0x0C	; 12
     f26:	0e 94 99 06 	call	0xd32	; 0xd32 <LCDsendCommand>
}
     f2a:	08 95       	ret

00000f2c <LCDcursorLeft>:
void LCDcursorLeft(uint8_t n)	//Moves cursor by n poisitions left
{
     f2c:	0f 93       	push	r16
     f2e:	1f 93       	push	r17
     f30:	08 2f       	mov	r16, r24
     f32:	10 e0       	ldi	r17, 0x00	; 0
     f34:	04 c0       	rjmp	.+8      	; 0xf3e <LCDcursorLeft+0x12>
	for (uint8_t i = 0; i < n; i++) {
		LCDsendCommand(0x10);
     f36:	80 e1       	ldi	r24, 0x10	; 16
     f38:	0e 94 99 06 	call	0xd32	; 0xd32 <LCDsendCommand>
{
	LCDsendCommand(0x0C);
}
void LCDcursorLeft(uint8_t n)	//Moves cursor by n poisitions left
{
	for (uint8_t i = 0; i < n; i++) {
     f3c:	1f 5f       	subi	r17, 0xFF	; 255
     f3e:	10 17       	cp	r17, r16
     f40:	d0 f3       	brcs	.-12     	; 0xf36 <LCDcursorLeft+0xa>
		LCDsendCommand(0x10);
	}
}
     f42:	1f 91       	pop	r17
     f44:	0f 91       	pop	r16
     f46:	08 95       	ret

00000f48 <LCDcursorRight>:
void LCDcursorRight(uint8_t n)	//Moves cursor by n poisitions left
{
     f48:	0f 93       	push	r16
     f4a:	1f 93       	push	r17
     f4c:	08 2f       	mov	r16, r24
     f4e:	10 e0       	ldi	r17, 0x00	; 0
     f50:	04 c0       	rjmp	.+8      	; 0xf5a <LCDcursorRight+0x12>
	for (uint8_t i = 0; i < n; i++) {
		LCDsendCommand(0x14);
     f52:	84 e1       	ldi	r24, 0x14	; 20
     f54:	0e 94 99 06 	call	0xd32	; 0xd32 <LCDsendCommand>
		LCDsendCommand(0x10);
	}
}
void LCDcursorRight(uint8_t n)	//Moves cursor by n poisitions left
{
	for (uint8_t i = 0; i < n; i++) {
     f58:	1f 5f       	subi	r17, 0xFF	; 255
     f5a:	10 17       	cp	r17, r16
     f5c:	d0 f3       	brcs	.-12     	; 0xf52 <LCDcursorRight+0xa>
		LCDsendCommand(0x14);
	}
}
     f5e:	1f 91       	pop	r17
     f60:	0f 91       	pop	r16
     f62:	08 95       	ret

00000f64 <LCDprogressBar>:
//adapted fro mAVRLIB
void LCDprogressBar(uint8_t progress, uint8_t maxprogress, uint8_t length) {
     f64:	df 92       	push	r13
     f66:	ef 92       	push	r14
     f68:	ff 92       	push	r15
     f6a:	0f 93       	push	r16
     f6c:	1f 93       	push	r17
     f6e:	cf 93       	push	r28
     f70:	df 93       	push	r29
     f72:	d4 2e       	mov	r13, r20
	// ***note, LCD chars 0-5 must be programmed as the bar characters
	// char 0 = empty ... char 5 = full

	// total pixel length of bargraph equals length*PROGRESSPIXELS_PER_CHAR;
	// pixel length of bar itself is
	pixelprogress = ((progress * (length * PROGRESSPIXELS_PER_CHAR))
     f74:	96 e0       	ldi	r25, 0x06	; 6
     f76:	89 9f       	mul	r24, r25
     f78:	c0 01       	movw	r24, r0
     f7a:	11 24       	eor	r1, r1
     f7c:	24 2f       	mov	r18, r20
     f7e:	30 e0       	ldi	r19, 0x00	; 0
     f80:	ac 01       	movw	r20, r24
     f82:	42 9f       	mul	r20, r18
     f84:	c0 01       	movw	r24, r0
     f86:	43 9f       	mul	r20, r19
     f88:	90 0d       	add	r25, r0
     f8a:	52 9f       	mul	r21, r18
     f8c:	90 0d       	add	r25, r0
     f8e:	11 24       	eor	r1, r1
     f90:	70 e0       	ldi	r23, 0x00	; 0
     f92:	0e 94 91 0c 	call	0x1922	; 0x1922 <__divmodhi4>
     f96:	eb 01       	movw	r28, r22
				// this is an empty block
				// use space character?
				c = 0;
			} else {
				// this is a partial block
				c = pixelprogress % PROGRESSPIXELS_PER_CHAR;
     f98:	cb 01       	movw	r24, r22
     f9a:	66 e0       	ldi	r22, 0x06	; 6
     f9c:	70 e0       	ldi	r23, 0x00	; 0
     f9e:	0e 94 7d 0c 	call	0x18fa	; 0x18fa <__udivmodhi4>
     fa2:	e8 2e       	mov	r14, r24
     fa4:	ff 24       	eor	r15, r15
     fa6:	00 e0       	ldi	r16, 0x00	; 0
     fa8:	10 e0       	ldi	r17, 0x00	; 0
     faa:	12 c0       	rjmp	.+36     	; 0xfd0 <LCDprogressBar+0x6c>

	// print exactly "length" characters
	for (i = 0; i < length; i++) {
		// check if this is a full block, or partial or empty
		// (u16) cast is needed to avoid sign comparison warning
		if (((i * (uint16_t) PROGRESSPIXELS_PER_CHAR) + 5) > pixelprogress) {
     fac:	c8 01       	movw	r24, r16
     fae:	05 96       	adiw	r24, 0x05	; 5
     fb0:	c8 17       	cp	r28, r24
     fb2:	d9 07       	cpc	r29, r25
     fb4:	10 f0       	brcs	.+4      	; 0xfba <LCDprogressBar+0x56>
     fb6:	85 e0       	ldi	r24, 0x05	; 5
     fb8:	06 c0       	rjmp	.+12     	; 0xfc6 <LCDprogressBar+0x62>
			// this is a partial or empty block
			if (((i * (uint16_t) PROGRESSPIXELS_PER_CHAR)) > pixelprogress) {
     fba:	c0 17       	cp	r28, r16
     fbc:	d1 07       	cpc	r29, r17
     fbe:	10 f0       	brcs	.+4      	; 0xfc4 <LCDprogressBar+0x60>
     fc0:	8e 2d       	mov	r24, r14
     fc2:	01 c0       	rjmp	.+2      	; 0xfc6 <LCDprogressBar+0x62>
     fc4:	80 e0       	ldi	r24, 0x00	; 0
			// this is a full block
			c = 5;
		}

		// write character to display
		LCDsendChar(c);
     fc6:	0e 94 73 06 	call	0xce6	; 0xce6 <LCDsendChar>
	// pixel length of bar itself is
	pixelprogress = ((progress * (length * PROGRESSPIXELS_PER_CHAR))
			/ maxprogress);

	// print exactly "length" characters
	for (i = 0; i < length; i++) {
     fca:	f3 94       	inc	r15
     fcc:	0a 5f       	subi	r16, 0xFA	; 250
     fce:	1f 4f       	sbci	r17, 0xFF	; 255
     fd0:	fd 14       	cp	r15, r13
     fd2:	60 f3       	brcs	.-40     	; 0xfac <LCDprogressBar+0x48>

		// write character to display
		LCDsendChar(c);
	}

}
     fd4:	df 91       	pop	r29
     fd6:	cf 91       	pop	r28
     fd8:	1f 91       	pop	r17
     fda:	0f 91       	pop	r16
     fdc:	ff 90       	pop	r15
     fde:	ef 90       	pop	r14
     fe0:	df 90       	pop	r13
     fe2:	08 95       	ret

00000fe4 <shiftOut>:
 *      Author: Soochan Kim
 */

#include "shiftout.h"

void shiftOut(uint8_t bitOrder, uint8_t val) {
     fe4:	e8 2f       	mov	r30, r24
     fe6:	27 e0       	ldi	r18, 0x07	; 7
     fe8:	30 e0       	ldi	r19, 0x00	; 0
     fea:	70 e0       	ldi	r23, 0x00	; 0
	uint8_t i;

	for (i = 0; i < 8; i++) {
		if (bitOrder == LSBFIRST)	{
			if(val & (1 << i))
     fec:	47 e0       	ldi	r20, 0x07	; 7
     fee:	50 e0       	ldi	r21, 0x00	; 0

void shiftOut(uint8_t bitOrder, uint8_t val) {
	uint8_t i;

	for (i = 0; i < 8; i++) {
		if (bitOrder == LSBFIRST)	{
     ff0:	ee 23       	and	r30, r30
     ff2:	59 f4       	brne	.+22     	; 0x100a <shiftOut+0x26>
			if(val & (1 << i))
     ff4:	ca 01       	movw	r24, r20
     ff6:	82 1b       	sub	r24, r18
     ff8:	93 0b       	sbc	r25, r19
     ffa:	db 01       	movw	r26, r22
     ffc:	02 c0       	rjmp	.+4      	; 0x1002 <shiftOut+0x1e>
     ffe:	b5 95       	asr	r27
    1000:	a7 95       	ror	r26
    1002:	8a 95       	dec	r24
    1004:	e2 f7       	brpl	.-8      	; 0xffe <shiftOut+0x1a>
    1006:	cd 01       	movw	r24, r26
    1008:	07 c0       	rjmp	.+14     	; 0x1018 <shiftOut+0x34>
				sbi(dataPort, dataPin);
			else
				cbi(dataPort, dataPin);
		}
		else{
			if(val & (1 << (7 - i)))
    100a:	cb 01       	movw	r24, r22
    100c:	02 2e       	mov	r0, r18
    100e:	02 c0       	rjmp	.+4      	; 0x1014 <shiftOut+0x30>
    1010:	95 95       	asr	r25
    1012:	87 95       	ror	r24
    1014:	0a 94       	dec	r0
    1016:	e2 f7       	brpl	.-8      	; 0x1010 <shiftOut+0x2c>
    1018:	80 ff       	sbrs	r24, 0
    101a:	02 c0       	rjmp	.+4      	; 0x1020 <shiftOut+0x3c>
				sbi(dataPort, dataPin);
    101c:	5a 9a       	sbi	0x0b, 2	; 11
    101e:	01 c0       	rjmp	.+2      	; 0x1022 <shiftOut+0x3e>
			else
				cbi(dataPort, dataPin);
    1020:	5a 98       	cbi	0x0b, 2	; 11
		}

		sbi(clockPort, clockPin);
    1022:	5b 9a       	sbi	0x0b, 3	; 11
		//_delay_ms(100);
		cbi(clockPort, clockPin);
    1024:	5b 98       	cbi	0x0b, 3	; 11
    1026:	21 50       	subi	r18, 0x01	; 1
    1028:	30 40       	sbci	r19, 0x00	; 0
#include "shiftout.h"

void shiftOut(uint8_t bitOrder, uint8_t val) {
	uint8_t i;

	for (i = 0; i < 8; i++) {
    102a:	bf ef       	ldi	r27, 0xFF	; 255
    102c:	2f 3f       	cpi	r18, 0xFF	; 255
    102e:	3b 07       	cpc	r19, r27
    1030:	f9 f6       	brne	.-66     	; 0xff0 <shiftOut+0xc>

		sbi(clockPort, clockPin);
		//_delay_ms(100);
		cbi(clockPort, clockPin);
	}
}
    1032:	08 95       	ret

00001034 <shiftSetup>:

void shiftSetup(void)
{
	sbi(DDRD, dataPin);
    1034:	52 9a       	sbi	0x0a, 2	; 10
	sbi(DDRD, clockPin);
    1036:	53 9a       	sbi	0x0a, 3	; 10
	sbi(DDRD, latchPin);
    1038:	54 9a       	sbi	0x0a, 4	; 10
}
    103a:	08 95       	ret

0000103c <__vector_18>:
ISR(UART0_RECEIVE_INTERRUPT)
/*************************************************************************
Function: UART Receive Complete interrupt
Purpose:  called when the UART has received a character
**************************************************************************/
{
    103c:	1f 92       	push	r1
    103e:	0f 92       	push	r0
    1040:	0f b6       	in	r0, 0x3f	; 63
    1042:	0f 92       	push	r0
    1044:	11 24       	eor	r1, r1
    1046:	2f 93       	push	r18
    1048:	8f 93       	push	r24
    104a:	9f 93       	push	r25
    104c:	ef 93       	push	r30
    104e:	ff 93       	push	r31
    unsigned char usr;
    unsigned char lastRxError;
 
 
    /* read UART status register and UART data register */ 
    usr  = UART0_STATUS;
    1050:	90 91 c0 00 	lds	r25, 0x00C0
    data = UART0_DATA;
    1054:	20 91 c6 00 	lds	r18, 0x00C6
#elif defined ( ATMEGA_UART )
    lastRxError = (usr & (_BV(FE)|_BV(DOR)) );
#endif
        
    /* calculate buffer index */ 
    tmphead = ( UART_RxHead + 1) & UART_RX_BUFFER_MASK;
    1058:	e0 91 40 03 	lds	r30, 0x0340
    105c:	ef 5f       	subi	r30, 0xFF	; 255
    105e:	ef 71       	andi	r30, 0x1F	; 31
    
    if ( tmphead == UART_RxTail ) {
    1060:	80 91 41 03 	lds	r24, 0x0341
    1064:	e8 17       	cp	r30, r24
    1066:	11 f4       	brne	.+4      	; 0x106c <__vector_18+0x30>
    1068:	82 e0       	ldi	r24, 0x02	; 2
    106a:	08 c0       	rjmp	.+16     	; 0x107c <__vector_18+0x40>
#if defined( AT90_UART )
    lastRxError = (usr & (_BV(FE)|_BV(DOR)) );
#elif defined( ATMEGA_USART )
    lastRxError = (usr & (_BV(FE)|_BV(DOR)) );
#elif defined( ATMEGA_USART0 )
    lastRxError = (usr & (_BV(FE0)|_BV(DOR0)) );
    106c:	89 2f       	mov	r24, r25
    106e:	88 71       	andi	r24, 0x18	; 24
    if ( tmphead == UART_RxTail ) {
        /* error: receive buffer overflow */
        lastRxError = UART_BUFFER_OVERFLOW >> 8;
    }else{
        /* store new index */
        UART_RxHead = tmphead;
    1070:	e0 93 40 03 	sts	0x0340, r30
        /* store received data in buffer */
        UART_RxBuf[tmphead] = data;
    1074:	f0 e0       	ldi	r31, 0x00	; 0
    1076:	e2 5e       	subi	r30, 0xE2	; 226
    1078:	fc 4f       	sbci	r31, 0xFC	; 252
    107a:	20 83       	st	Z, r18
    }
    UART_LastRxError = lastRxError;   
    107c:	80 93 42 03 	sts	0x0342, r24
}
    1080:	ff 91       	pop	r31
    1082:	ef 91       	pop	r30
    1084:	9f 91       	pop	r25
    1086:	8f 91       	pop	r24
    1088:	2f 91       	pop	r18
    108a:	0f 90       	pop	r0
    108c:	0f be       	out	0x3f, r0	; 63
    108e:	0f 90       	pop	r0
    1090:	1f 90       	pop	r1
    1092:	18 95       	reti

00001094 <__vector_19>:
ISR(UART0_TRANSMIT_INTERRUPT)
/*************************************************************************
Function: UART Data Register Empty interrupt
Purpose:  called when the UART is ready to transmit the next byte
**************************************************************************/
{
    1094:	1f 92       	push	r1
    1096:	0f 92       	push	r0
    1098:	0f b6       	in	r0, 0x3f	; 63
    109a:	0f 92       	push	r0
    109c:	11 24       	eor	r1, r1
    109e:	8f 93       	push	r24
    10a0:	9f 93       	push	r25
    10a2:	ef 93       	push	r30
    10a4:	ff 93       	push	r31
    unsigned char tmptail;

    
    if ( UART_TxHead != UART_TxTail) {
    10a6:	90 91 3e 03 	lds	r25, 0x033E
    10aa:	80 91 3f 03 	lds	r24, 0x033F
    10ae:	98 17       	cp	r25, r24
    10b0:	69 f0       	breq	.+26     	; 0x10cc <__vector_19+0x38>
        /* calculate and store new buffer index */
        tmptail = (UART_TxTail + 1) & UART_TX_BUFFER_MASK;
    10b2:	e0 91 3f 03 	lds	r30, 0x033F
    10b6:	ef 5f       	subi	r30, 0xFF	; 255
    10b8:	ef 71       	andi	r30, 0x1F	; 31
        UART_TxTail = tmptail;
    10ba:	e0 93 3f 03 	sts	0x033F, r30
        /* get one byte from buffer and write it to UART */
        UART0_DATA = UART_TxBuf[tmptail];  /* start transmission */
    10be:	f0 e0       	ldi	r31, 0x00	; 0
    10c0:	e2 50       	subi	r30, 0x02	; 2
    10c2:	fd 4f       	sbci	r31, 0xFD	; 253
    10c4:	80 81       	ld	r24, Z
    10c6:	80 93 c6 00 	sts	0x00C6, r24
    10ca:	05 c0       	rjmp	.+10     	; 0x10d6 <__vector_19+0x42>
    }else{
        /* tx buffer empty, disable UDRE interrupt */
        UART0_CONTROL &= ~_BV(UART0_UDRIE);
    10cc:	80 91 c1 00 	lds	r24, 0x00C1
    10d0:	8f 7d       	andi	r24, 0xDF	; 223
    10d2:	80 93 c1 00 	sts	0x00C1, r24
    }
}
    10d6:	ff 91       	pop	r31
    10d8:	ef 91       	pop	r30
    10da:	9f 91       	pop	r25
    10dc:	8f 91       	pop	r24
    10de:	0f 90       	pop	r0
    10e0:	0f be       	out	0x3f, r0	; 63
    10e2:	0f 90       	pop	r0
    10e4:	1f 90       	pop	r1
    10e6:	18 95       	reti

000010e8 <uart_init>:
Purpose:  initialize UART and set baudrate
Input:    baudrate using macro UART_BAUD_SELECT()
Returns:  none
**************************************************************************/
void uart_init(unsigned int baudrate)
{
    10e8:	9c 01       	movw	r18, r24
    UART_TxHead = 0;
    10ea:	10 92 3e 03 	sts	0x033E, r1
    UART_TxTail = 0;
    10ee:	10 92 3f 03 	sts	0x033F, r1
    UART_RxHead = 0;
    10f2:	10 92 40 03 	sts	0x0340, r1
    UART_RxTail = 0;
    10f6:	10 92 41 03 	sts	0x0341, r1
    UCSRC = (3<<UCSZ0);
    #endif 
    
#elif defined (ATMEGA_USART0 )
    /* Set baud rate */
    if ( baudrate & 0x8000 ) 
    10fa:	97 ff       	sbrs	r25, 7
    10fc:	04 c0       	rjmp	.+8      	; 0x1106 <uart_init+0x1e>
    {
   		UART0_STATUS = (1<<U2X0);  //Enable 2x speed 
    10fe:	82 e0       	ldi	r24, 0x02	; 2
    1100:	80 93 c0 00 	sts	0x00C0, r24
   		baudrate &= ~0x8000;
    1104:	3f 77       	andi	r19, 0x7F	; 127
   	}
    UBRR0H = (unsigned char)(baudrate>>8);
    1106:	30 93 c5 00 	sts	0x00C5, r19
    UBRR0L = (unsigned char) baudrate;
    110a:	20 93 c4 00 	sts	0x00C4, r18

    /* Enable USART receiver and transmitter and receive complete interrupt */
    UART0_CONTROL = _BV(RXCIE0)|(1<<RXEN0)|(1<<TXEN0);
    110e:	88 e9       	ldi	r24, 0x98	; 152
    1110:	80 93 c1 00 	sts	0x00C1, r24
    
    /* Set frame format: asynchronous, 8data, no parity, 1stop bit */
    #ifdef URSEL0
    UCSR0C = (1<<URSEL0)|(3<<UCSZ00);
    #else
    UCSR0C = (3<<UCSZ00);
    1114:	86 e0       	ldi	r24, 0x06	; 6
    1116:	80 93 c2 00 	sts	0x00C2, r24
    /* Enable UART receiver and transmitter and receive complete interrupt */
    UART0_CONTROL = _BV(RXCIE)|(1<<RXEN)|(1<<TXEN);

#endif

}/* uart_init */
    111a:	08 95       	ret

0000111c <uart_getc>:
{    
    unsigned char tmptail;
    unsigned char data;


    if ( UART_RxHead == UART_RxTail ) {
    111c:	90 91 40 03 	lds	r25, 0x0340
    1120:	80 91 41 03 	lds	r24, 0x0341
    1124:	98 17       	cp	r25, r24
    1126:	19 f4       	brne	.+6      	; 0x112e <uart_getc+0x12>
    1128:	20 e0       	ldi	r18, 0x00	; 0
    112a:	31 e0       	ldi	r19, 0x01	; 1
    112c:	12 c0       	rjmp	.+36     	; 0x1152 <uart_getc+0x36>
        return UART_NO_DATA;   /* no data available */
    }
    
    /* calculate /store buffer index */
    tmptail = (UART_RxTail + 1) & UART_RX_BUFFER_MASK;
    112e:	e0 91 41 03 	lds	r30, 0x0341
    1132:	ef 5f       	subi	r30, 0xFF	; 255
    1134:	ef 71       	andi	r30, 0x1F	; 31
    UART_RxTail = tmptail; 
    1136:	e0 93 41 03 	sts	0x0341, r30
    
    /* get data from receive buffer */
    data = UART_RxBuf[tmptail];
    113a:	f0 e0       	ldi	r31, 0x00	; 0
    113c:	e2 5e       	subi	r30, 0xE2	; 226
    113e:	fc 4f       	sbci	r31, 0xFC	; 252
    1140:	30 81       	ld	r19, Z
    
    return (UART_LastRxError << 8) + data;
    1142:	20 91 42 03 	lds	r18, 0x0342
    1146:	92 2f       	mov	r25, r18
    1148:	80 e0       	ldi	r24, 0x00	; 0
    114a:	ac 01       	movw	r20, r24
    114c:	43 0f       	add	r20, r19
    114e:	51 1d       	adc	r21, r1
    1150:	9a 01       	movw	r18, r20

}/* uart_getc */
    1152:	c9 01       	movw	r24, r18
    1154:	08 95       	ret

00001156 <uart_scanf>:

int uart_scanf(FILE *stream) {
	return uart_getc();
    1156:	0e 94 8e 08 	call	0x111c	; 0x111c <uart_getc>
}
    115a:	08 95       	ret

0000115c <uart_putc>:
Purpose:  write byte to ringbuffer for transmitting via UART
Input:    byte to be transmitted
Returns:  none          
**************************************************************************/
void uart_putc(unsigned char data)
{
    115c:	28 2f       	mov	r18, r24
    unsigned char tmphead;

    
    tmphead  = (UART_TxHead + 1) & UART_TX_BUFFER_MASK;
    115e:	90 91 3e 03 	lds	r25, 0x033E
    1162:	9f 5f       	subi	r25, 0xFF	; 255
    1164:	9f 71       	andi	r25, 0x1F	; 31
    
    while ( tmphead == UART_TxTail ){
    1166:	80 91 3f 03 	lds	r24, 0x033F
    116a:	98 17       	cp	r25, r24
    116c:	e1 f3       	breq	.-8      	; 0x1166 <uart_putc+0xa>
        ;/* wait for free space in buffer */
    }
    
    UART_TxBuf[tmphead] = data;
    116e:	e9 2f       	mov	r30, r25
    1170:	f0 e0       	ldi	r31, 0x00	; 0
    1172:	e2 50       	subi	r30, 0x02	; 2
    1174:	fd 4f       	sbci	r31, 0xFD	; 253
    1176:	20 83       	st	Z, r18
    UART_TxHead = tmphead;
    1178:	90 93 3e 03 	sts	0x033E, r25

    /* enable UDRE interrupt */
    UART0_CONTROL    |= _BV(UART0_UDRIE);
    117c:	80 91 c1 00 	lds	r24, 0x00C1
    1180:	80 62       	ori	r24, 0x20	; 32
    1182:	80 93 c1 00 	sts	0x00C1, r24

}/* uart_putc */
    1186:	08 95       	ret

00001188 <uart_printf>:
int uart_scanf(FILE *stream) {
	return uart_getc();
}

int uart_printf(unsigned char data, FILE * stream) {
	uart_putc(data);
    1188:	0e 94 ae 08 	call	0x115c	; 0x115c <uart_putc>
	return 0;
}
    118c:	80 e0       	ldi	r24, 0x00	; 0
    118e:	90 e0       	ldi	r25, 0x00	; 0
    1190:	08 95       	ret

00001192 <uart_puts>:
Purpose:  transmit string to UART
Input:    string to be transmitted
Returns:  none          
**************************************************************************/
void uart_puts(const char *s )
{
    1192:	cf 93       	push	r28
    1194:	df 93       	push	r29
    1196:	ec 01       	movw	r28, r24
    1198:	03 c0       	rjmp	.+6      	; 0x11a0 <uart_puts+0xe>
    while (*s) 
      uart_putc(*s++);
    119a:	21 96       	adiw	r28, 0x01	; 1
    119c:	0e 94 ae 08 	call	0x115c	; 0x115c <uart_putc>
Input:    string to be transmitted
Returns:  none          
**************************************************************************/
void uart_puts(const char *s )
{
    while (*s) 
    11a0:	88 81       	ld	r24, Y
    11a2:	88 23       	and	r24, r24
    11a4:	d1 f7       	brne	.-12     	; 0x119a <uart_puts+0x8>
      uart_putc(*s++);

}/* uart_puts */
    11a6:	df 91       	pop	r29
    11a8:	cf 91       	pop	r28
    11aa:	08 95       	ret

000011ac <uart_puts_p>:
Purpose:  transmit string from program memory to UART
Input:    program memory string to be transmitted
Returns:  none
**************************************************************************/
void uart_puts_p(const char *progmem_s )
{
    11ac:	cf 93       	push	r28
    11ae:	df 93       	push	r29
    11b0:	ec 01       	movw	r28, r24
    11b2:	02 c0       	rjmp	.+4      	; 0x11b8 <uart_puts_p+0xc>
    register char c;
    
    while ( (c = pgm_read_byte(progmem_s++)) ) 
      uart_putc(c);
    11b4:	0e 94 ae 08 	call	0x115c	; 0x115c <uart_putc>
    11b8:	fe 01       	movw	r30, r28
**************************************************************************/
void uart_puts_p(const char *progmem_s )
{
    register char c;
    
    while ( (c = pgm_read_byte(progmem_s++)) ) 
    11ba:	21 96       	adiw	r28, 0x01	; 1
    11bc:	84 91       	lpm	r24, Z+
    11be:	88 23       	and	r24, r24
    11c0:	c9 f7       	brne	.-14     	; 0x11b4 <uart_puts_p+0x8>
      uart_putc(c);

}/* uart_puts_p */
    11c2:	df 91       	pop	r29
    11c4:	cf 91       	pop	r28
    11c6:	08 95       	ret

000011c8 <uart_available>:
Input:    None
Returns:  Integer number of bytes in the receive buffer
**************************************************************************/
int uart_available(void)
{
        return (UART_RX_BUFFER_MASK + UART_RxHead - UART_RxTail) % UART_RX_BUFFER_MASK;
    11c8:	80 91 40 03 	lds	r24, 0x0340
    11cc:	20 91 41 03 	lds	r18, 0x0341
    11d0:	90 e0       	ldi	r25, 0x00	; 0
    11d2:	4f 96       	adiw	r24, 0x1f	; 31
    11d4:	82 1b       	sub	r24, r18
    11d6:	91 09       	sbc	r25, r1
    11d8:	6f e1       	ldi	r22, 0x1F	; 31
    11da:	70 e0       	ldi	r23, 0x00	; 0
    11dc:	0e 94 91 0c 	call	0x1922	; 0x1922 <__divmodhi4>
}/* uart_available */
    11e0:	08 95       	ret

000011e2 <uart_flush>:
Input:    None
Returns:  None
**************************************************************************/
void uart_flush(void)
{
        UART_RxHead = UART_RxTail;
    11e2:	80 91 41 03 	lds	r24, 0x0341
    11e6:	80 93 40 03 	sts	0x0340, r24
}/* uart_flush */
    11ea:	08 95       	ret

000011ec <vfprintf>:
    11ec:	a1 e1       	ldi	r26, 0x11	; 17
    11ee:	b0 e0       	ldi	r27, 0x00	; 0
    11f0:	ec ef       	ldi	r30, 0xFC	; 252
    11f2:	f8 e0       	ldi	r31, 0x08	; 8
    11f4:	0c 94 a4 0c 	jmp	0x1948	; 0x1948 <__prologue_saves__>
    11f8:	3c 01       	movw	r6, r24
    11fa:	7f 87       	std	Y+15, r23	; 0x0f
    11fc:	6e 87       	std	Y+14, r22	; 0x0e
    11fe:	6a 01       	movw	r12, r20
    1200:	fc 01       	movw	r30, r24
    1202:	17 82       	std	Z+7, r1	; 0x07
    1204:	16 82       	std	Z+6, r1	; 0x06
    1206:	83 81       	ldd	r24, Z+3	; 0x03
    1208:	81 fd       	sbrc	r24, 1
    120a:	03 c0       	rjmp	.+6      	; 0x1212 <vfprintf+0x26>
    120c:	6f ef       	ldi	r22, 0xFF	; 255
    120e:	7f ef       	ldi	r23, 0xFF	; 255
    1210:	6f c3       	rjmp	.+1758   	; 0x18f0 <vfprintf+0x704>
    1212:	9e 01       	movw	r18, r28
    1214:	2f 5f       	subi	r18, 0xFF	; 255
    1216:	3f 4f       	sbci	r19, 0xFF	; 255
    1218:	39 8b       	std	Y+17, r19	; 0x11
    121a:	28 8b       	std	Y+16, r18	; 0x10
    121c:	f3 01       	movw	r30, r6
    121e:	23 81       	ldd	r18, Z+3	; 0x03
    1220:	ee 85       	ldd	r30, Y+14	; 0x0e
    1222:	ff 85       	ldd	r31, Y+15	; 0x0f
    1224:	23 fd       	sbrc	r18, 3
    1226:	85 91       	lpm	r24, Z+
    1228:	23 ff       	sbrs	r18, 3
    122a:	81 91       	ld	r24, Z+
    122c:	ff 87       	std	Y+15, r31	; 0x0f
    122e:	ee 87       	std	Y+14, r30	; 0x0e
    1230:	88 23       	and	r24, r24
    1232:	09 f4       	brne	.+2      	; 0x1236 <vfprintf+0x4a>
    1234:	5a c3       	rjmp	.+1716   	; 0x18ea <vfprintf+0x6fe>
    1236:	85 32       	cpi	r24, 0x25	; 37
    1238:	51 f4       	brne	.+20     	; 0x124e <vfprintf+0x62>
    123a:	ee 85       	ldd	r30, Y+14	; 0x0e
    123c:	ff 85       	ldd	r31, Y+15	; 0x0f
    123e:	23 fd       	sbrc	r18, 3
    1240:	85 91       	lpm	r24, Z+
    1242:	23 ff       	sbrs	r18, 3
    1244:	81 91       	ld	r24, Z+
    1246:	ff 87       	std	Y+15, r31	; 0x0f
    1248:	ee 87       	std	Y+14, r30	; 0x0e
    124a:	85 32       	cpi	r24, 0x25	; 37
    124c:	29 f4       	brne	.+10     	; 0x1258 <vfprintf+0x6c>
    124e:	90 e0       	ldi	r25, 0x00	; 0
    1250:	b3 01       	movw	r22, r6
    1252:	0e 94 c9 0d 	call	0x1b92	; 0x1b92 <fputc>
    1256:	e2 cf       	rjmp	.-60     	; 0x121c <vfprintf+0x30>
    1258:	98 2f       	mov	r25, r24
    125a:	10 e0       	ldi	r17, 0x00	; 0
    125c:	88 24       	eor	r8, r8
    125e:	99 24       	eor	r9, r9
    1260:	10 32       	cpi	r17, 0x20	; 32
    1262:	b0 f4       	brcc	.+44     	; 0x1290 <vfprintf+0xa4>
    1264:	9b 32       	cpi	r25, 0x2B	; 43
    1266:	69 f0       	breq	.+26     	; 0x1282 <vfprintf+0x96>
    1268:	9c 32       	cpi	r25, 0x2C	; 44
    126a:	28 f4       	brcc	.+10     	; 0x1276 <vfprintf+0x8a>
    126c:	90 32       	cpi	r25, 0x20	; 32
    126e:	51 f0       	breq	.+20     	; 0x1284 <vfprintf+0x98>
    1270:	93 32       	cpi	r25, 0x23	; 35
    1272:	71 f4       	brne	.+28     	; 0x1290 <vfprintf+0xa4>
    1274:	0b c0       	rjmp	.+22     	; 0x128c <vfprintf+0xa0>
    1276:	9d 32       	cpi	r25, 0x2D	; 45
    1278:	39 f0       	breq	.+14     	; 0x1288 <vfprintf+0x9c>
    127a:	90 33       	cpi	r25, 0x30	; 48
    127c:	49 f4       	brne	.+18     	; 0x1290 <vfprintf+0xa4>
    127e:	11 60       	ori	r17, 0x01	; 1
    1280:	28 c0       	rjmp	.+80     	; 0x12d2 <vfprintf+0xe6>
    1282:	12 60       	ori	r17, 0x02	; 2
    1284:	14 60       	ori	r17, 0x04	; 4
    1286:	25 c0       	rjmp	.+74     	; 0x12d2 <vfprintf+0xe6>
    1288:	18 60       	ori	r17, 0x08	; 8
    128a:	23 c0       	rjmp	.+70     	; 0x12d2 <vfprintf+0xe6>
    128c:	10 61       	ori	r17, 0x10	; 16
    128e:	21 c0       	rjmp	.+66     	; 0x12d2 <vfprintf+0xe6>
    1290:	17 fd       	sbrc	r17, 7
    1292:	2a c0       	rjmp	.+84     	; 0x12e8 <vfprintf+0xfc>
    1294:	89 2f       	mov	r24, r25
    1296:	80 53       	subi	r24, 0x30	; 48
    1298:	8a 30       	cpi	r24, 0x0A	; 10
    129a:	78 f4       	brcc	.+30     	; 0x12ba <vfprintf+0xce>
    129c:	16 ff       	sbrs	r17, 6
    129e:	06 c0       	rjmp	.+12     	; 0x12ac <vfprintf+0xc0>
    12a0:	fa e0       	ldi	r31, 0x0A	; 10
    12a2:	9f 9e       	mul	r9, r31
    12a4:	90 2c       	mov	r9, r0
    12a6:	11 24       	eor	r1, r1
    12a8:	98 0e       	add	r9, r24
    12aa:	13 c0       	rjmp	.+38     	; 0x12d2 <vfprintf+0xe6>
    12ac:	3a e0       	ldi	r19, 0x0A	; 10
    12ae:	83 9e       	mul	r8, r19
    12b0:	80 2c       	mov	r8, r0
    12b2:	11 24       	eor	r1, r1
    12b4:	88 0e       	add	r8, r24
    12b6:	10 62       	ori	r17, 0x20	; 32
    12b8:	0c c0       	rjmp	.+24     	; 0x12d2 <vfprintf+0xe6>
    12ba:	9e 32       	cpi	r25, 0x2E	; 46
    12bc:	21 f4       	brne	.+8      	; 0x12c6 <vfprintf+0xda>
    12be:	16 fd       	sbrc	r17, 6
    12c0:	14 c3       	rjmp	.+1576   	; 0x18ea <vfprintf+0x6fe>
    12c2:	10 64       	ori	r17, 0x40	; 64
    12c4:	06 c0       	rjmp	.+12     	; 0x12d2 <vfprintf+0xe6>
    12c6:	9c 36       	cpi	r25, 0x6C	; 108
    12c8:	11 f4       	brne	.+4      	; 0x12ce <vfprintf+0xe2>
    12ca:	10 68       	ori	r17, 0x80	; 128
    12cc:	02 c0       	rjmp	.+4      	; 0x12d2 <vfprintf+0xe6>
    12ce:	98 36       	cpi	r25, 0x68	; 104
    12d0:	59 f4       	brne	.+22     	; 0x12e8 <vfprintf+0xfc>
    12d2:	ee 85       	ldd	r30, Y+14	; 0x0e
    12d4:	ff 85       	ldd	r31, Y+15	; 0x0f
    12d6:	23 fd       	sbrc	r18, 3
    12d8:	95 91       	lpm	r25, Z+
    12da:	23 ff       	sbrs	r18, 3
    12dc:	91 91       	ld	r25, Z+
    12de:	ff 87       	std	Y+15, r31	; 0x0f
    12e0:	ee 87       	std	Y+14, r30	; 0x0e
    12e2:	99 23       	and	r25, r25
    12e4:	09 f0       	breq	.+2      	; 0x12e8 <vfprintf+0xfc>
    12e6:	bc cf       	rjmp	.-136    	; 0x1260 <vfprintf+0x74>
    12e8:	89 2f       	mov	r24, r25
    12ea:	85 54       	subi	r24, 0x45	; 69
    12ec:	83 30       	cpi	r24, 0x03	; 3
    12ee:	20 f4       	brcc	.+8      	; 0x12f8 <vfprintf+0x10c>
    12f0:	81 2f       	mov	r24, r17
    12f2:	80 61       	ori	r24, 0x10	; 16
    12f4:	90 5e       	subi	r25, 0xE0	; 224
    12f6:	07 c0       	rjmp	.+14     	; 0x1306 <vfprintf+0x11a>
    12f8:	89 2f       	mov	r24, r25
    12fa:	85 56       	subi	r24, 0x65	; 101
    12fc:	83 30       	cpi	r24, 0x03	; 3
    12fe:	08 f0       	brcs	.+2      	; 0x1302 <vfprintf+0x116>
    1300:	9f c1       	rjmp	.+830    	; 0x1640 <vfprintf+0x454>
    1302:	81 2f       	mov	r24, r17
    1304:	8f 7e       	andi	r24, 0xEF	; 239
    1306:	86 fd       	sbrc	r24, 6
    1308:	02 c0       	rjmp	.+4      	; 0x130e <vfprintf+0x122>
    130a:	76 e0       	ldi	r23, 0x06	; 6
    130c:	97 2e       	mov	r9, r23
    130e:	6f e3       	ldi	r22, 0x3F	; 63
    1310:	f6 2e       	mov	r15, r22
    1312:	f8 22       	and	r15, r24
    1314:	95 36       	cpi	r25, 0x65	; 101
    1316:	19 f4       	brne	.+6      	; 0x131e <vfprintf+0x132>
    1318:	f0 e4       	ldi	r31, 0x40	; 64
    131a:	ff 2a       	or	r15, r31
    131c:	07 c0       	rjmp	.+14     	; 0x132c <vfprintf+0x140>
    131e:	96 36       	cpi	r25, 0x66	; 102
    1320:	19 f4       	brne	.+6      	; 0x1328 <vfprintf+0x13c>
    1322:	20 e8       	ldi	r18, 0x80	; 128
    1324:	f2 2a       	or	r15, r18
    1326:	02 c0       	rjmp	.+4      	; 0x132c <vfprintf+0x140>
    1328:	91 10       	cpse	r9, r1
    132a:	9a 94       	dec	r9
    132c:	f7 fe       	sbrs	r15, 7
    132e:	0a c0       	rjmp	.+20     	; 0x1344 <vfprintf+0x158>
    1330:	3b e3       	ldi	r19, 0x3B	; 59
    1332:	39 15       	cp	r19, r9
    1334:	18 f4       	brcc	.+6      	; 0x133c <vfprintf+0x150>
    1336:	5c e3       	ldi	r21, 0x3C	; 60
    1338:	b5 2e       	mov	r11, r21
    133a:	02 c0       	rjmp	.+4      	; 0x1340 <vfprintf+0x154>
    133c:	b9 2c       	mov	r11, r9
    133e:	b3 94       	inc	r11
    1340:	27 e0       	ldi	r18, 0x07	; 7
    1342:	09 c0       	rjmp	.+18     	; 0x1356 <vfprintf+0x16a>
    1344:	47 e0       	ldi	r20, 0x07	; 7
    1346:	49 15       	cp	r20, r9
    1348:	20 f4       	brcc	.+8      	; 0x1352 <vfprintf+0x166>
    134a:	bb 24       	eor	r11, r11
    134c:	47 e0       	ldi	r20, 0x07	; 7
    134e:	94 2e       	mov	r9, r20
    1350:	f7 cf       	rjmp	.-18     	; 0x1340 <vfprintf+0x154>
    1352:	29 2d       	mov	r18, r9
    1354:	bb 24       	eor	r11, r11
    1356:	c6 01       	movw	r24, r12
    1358:	04 96       	adiw	r24, 0x04	; 4
    135a:	9d 87       	std	Y+13, r25	; 0x0d
    135c:	8c 87       	std	Y+12, r24	; 0x0c
    135e:	f6 01       	movw	r30, r12
    1360:	60 81       	ld	r22, Z
    1362:	71 81       	ldd	r23, Z+1	; 0x01
    1364:	82 81       	ldd	r24, Z+2	; 0x02
    1366:	93 81       	ldd	r25, Z+3	; 0x03
    1368:	ae 01       	movw	r20, r28
    136a:	4f 5f       	subi	r20, 0xFF	; 255
    136c:	5f 4f       	sbci	r21, 0xFF	; 255
    136e:	0b 2d       	mov	r16, r11
    1370:	0e 94 db 0c 	call	0x19b6	; 0x19b6 <__ftoa_engine>
    1374:	6c 01       	movw	r12, r24
    1376:	09 81       	ldd	r16, Y+1	; 0x01
    1378:	20 2e       	mov	r2, r16
    137a:	33 24       	eor	r3, r3
    137c:	00 ff       	sbrs	r16, 0
    137e:	04 c0       	rjmp	.+8      	; 0x1388 <vfprintf+0x19c>
    1380:	03 fd       	sbrc	r16, 3
    1382:	02 c0       	rjmp	.+4      	; 0x1388 <vfprintf+0x19c>
    1384:	1d e2       	ldi	r17, 0x2D	; 45
    1386:	09 c0       	rjmp	.+18     	; 0x139a <vfprintf+0x1ae>
    1388:	f1 fe       	sbrs	r15, 1
    138a:	02 c0       	rjmp	.+4      	; 0x1390 <vfprintf+0x1a4>
    138c:	1b e2       	ldi	r17, 0x2B	; 43
    138e:	05 c0       	rjmp	.+10     	; 0x139a <vfprintf+0x1ae>
    1390:	f2 fc       	sbrc	r15, 2
    1392:	02 c0       	rjmp	.+4      	; 0x1398 <vfprintf+0x1ac>
    1394:	10 e0       	ldi	r17, 0x00	; 0
    1396:	01 c0       	rjmp	.+2      	; 0x139a <vfprintf+0x1ae>
    1398:	10 e2       	ldi	r17, 0x20	; 32
    139a:	c1 01       	movw	r24, r2
    139c:	8c 70       	andi	r24, 0x0C	; 12
    139e:	90 70       	andi	r25, 0x00	; 0
    13a0:	89 2b       	or	r24, r25
    13a2:	b9 f1       	breq	.+110    	; 0x1412 <vfprintf+0x226>
    13a4:	11 23       	and	r17, r17
    13a6:	11 f4       	brne	.+4      	; 0x13ac <vfprintf+0x1c0>
    13a8:	83 e0       	ldi	r24, 0x03	; 3
    13aa:	01 c0       	rjmp	.+2      	; 0x13ae <vfprintf+0x1c2>
    13ac:	84 e0       	ldi	r24, 0x04	; 4
    13ae:	88 15       	cp	r24, r8
    13b0:	10 f0       	brcs	.+4      	; 0x13b6 <vfprintf+0x1ca>
    13b2:	88 24       	eor	r8, r8
    13b4:	0a c0       	rjmp	.+20     	; 0x13ca <vfprintf+0x1de>
    13b6:	88 1a       	sub	r8, r24
    13b8:	f3 fc       	sbrc	r15, 3
    13ba:	07 c0       	rjmp	.+14     	; 0x13ca <vfprintf+0x1de>
    13bc:	80 e2       	ldi	r24, 0x20	; 32
    13be:	90 e0       	ldi	r25, 0x00	; 0
    13c0:	b3 01       	movw	r22, r6
    13c2:	0e 94 c9 0d 	call	0x1b92	; 0x1b92 <fputc>
    13c6:	8a 94       	dec	r8
    13c8:	c9 f7       	brne	.-14     	; 0x13bc <vfprintf+0x1d0>
    13ca:	11 23       	and	r17, r17
    13cc:	29 f0       	breq	.+10     	; 0x13d8 <vfprintf+0x1ec>
    13ce:	81 2f       	mov	r24, r17
    13d0:	90 e0       	ldi	r25, 0x00	; 0
    13d2:	b3 01       	movw	r22, r6
    13d4:	0e 94 c9 0d 	call	0x1b92	; 0x1b92 <fputc>
    13d8:	23 fe       	sbrs	r2, 3
    13da:	03 c0       	rjmp	.+6      	; 0x13e2 <vfprintf+0x1f6>
    13dc:	0e ee       	ldi	r16, 0xEE	; 238
    13de:	10 e0       	ldi	r17, 0x00	; 0
    13e0:	0e c0       	rjmp	.+28     	; 0x13fe <vfprintf+0x212>
    13e2:	02 ef       	ldi	r16, 0xF2	; 242
    13e4:	10 e0       	ldi	r17, 0x00	; 0
    13e6:	0b c0       	rjmp	.+22     	; 0x13fe <vfprintf+0x212>
    13e8:	e1 14       	cp	r14, r1
    13ea:	f1 04       	cpc	r15, r1
    13ec:	09 f0       	breq	.+2      	; 0x13f0 <vfprintf+0x204>
    13ee:	80 52       	subi	r24, 0x20	; 32
    13f0:	90 e0       	ldi	r25, 0x00	; 0
    13f2:	b3 01       	movw	r22, r6
    13f4:	0e 94 c9 0d 	call	0x1b92	; 0x1b92 <fputc>
    13f8:	0f 5f       	subi	r16, 0xFF	; 255
    13fa:	1f 4f       	sbci	r17, 0xFF	; 255
    13fc:	05 c0       	rjmp	.+10     	; 0x1408 <vfprintf+0x21c>
    13fe:	ef 2c       	mov	r14, r15
    1400:	ff 24       	eor	r15, r15
    1402:	f0 e1       	ldi	r31, 0x10	; 16
    1404:	ef 22       	and	r14, r31
    1406:	ff 24       	eor	r15, r15
    1408:	f8 01       	movw	r30, r16
    140a:	84 91       	lpm	r24, Z+
    140c:	88 23       	and	r24, r24
    140e:	61 f7       	brne	.-40     	; 0x13e8 <vfprintf+0x1fc>
    1410:	14 c1       	rjmp	.+552    	; 0x163a <vfprintf+0x44e>
    1412:	f7 fe       	sbrs	r15, 7
    1414:	12 c0       	rjmp	.+36     	; 0x143a <vfprintf+0x24e>
    1416:	bc 0c       	add	r11, r12
    1418:	24 fe       	sbrs	r2, 4
    141a:	04 c0       	rjmp	.+8      	; 0x1424 <vfprintf+0x238>
    141c:	8a 81       	ldd	r24, Y+2	; 0x02
    141e:	81 33       	cpi	r24, 0x31	; 49
    1420:	09 f4       	brne	.+2      	; 0x1424 <vfprintf+0x238>
    1422:	ba 94       	dec	r11
    1424:	1b 14       	cp	r1, r11
    1426:	1c f0       	brlt	.+6      	; 0x142e <vfprintf+0x242>
    1428:	bb 24       	eor	r11, r11
    142a:	b3 94       	inc	r11
    142c:	2d c0       	rjmp	.+90     	; 0x1488 <vfprintf+0x29c>
    142e:	f8 e0       	ldi	r31, 0x08	; 8
    1430:	fb 15       	cp	r31, r11
    1432:	50 f5       	brcc	.+84     	; 0x1488 <vfprintf+0x29c>
    1434:	38 e0       	ldi	r19, 0x08	; 8
    1436:	b3 2e       	mov	r11, r19
    1438:	27 c0       	rjmp	.+78     	; 0x1488 <vfprintf+0x29c>
    143a:	f6 fc       	sbrc	r15, 6
    143c:	25 c0       	rjmp	.+74     	; 0x1488 <vfprintf+0x29c>
    143e:	89 2d       	mov	r24, r9
    1440:	90 e0       	ldi	r25, 0x00	; 0
    1442:	8c 15       	cp	r24, r12
    1444:	9d 05       	cpc	r25, r13
    1446:	4c f0       	brlt	.+18     	; 0x145a <vfprintf+0x26e>
    1448:	2c ef       	ldi	r18, 0xFC	; 252
    144a:	c2 16       	cp	r12, r18
    144c:	2f ef       	ldi	r18, 0xFF	; 255
    144e:	d2 06       	cpc	r13, r18
    1450:	24 f0       	brlt	.+8      	; 0x145a <vfprintf+0x26e>
    1452:	30 e8       	ldi	r19, 0x80	; 128
    1454:	f3 2a       	or	r15, r19
    1456:	01 c0       	rjmp	.+2      	; 0x145a <vfprintf+0x26e>
    1458:	9a 94       	dec	r9
    145a:	99 20       	and	r9, r9
    145c:	49 f0       	breq	.+18     	; 0x1470 <vfprintf+0x284>
    145e:	e2 e0       	ldi	r30, 0x02	; 2
    1460:	f0 e0       	ldi	r31, 0x00	; 0
    1462:	ec 0f       	add	r30, r28
    1464:	fd 1f       	adc	r31, r29
    1466:	e9 0d       	add	r30, r9
    1468:	f1 1d       	adc	r31, r1
    146a:	80 81       	ld	r24, Z
    146c:	80 33       	cpi	r24, 0x30	; 48
    146e:	a1 f3       	breq	.-24     	; 0x1458 <vfprintf+0x26c>
    1470:	f7 fe       	sbrs	r15, 7
    1472:	0a c0       	rjmp	.+20     	; 0x1488 <vfprintf+0x29c>
    1474:	b9 2c       	mov	r11, r9
    1476:	b3 94       	inc	r11
    1478:	89 2d       	mov	r24, r9
    147a:	90 e0       	ldi	r25, 0x00	; 0
    147c:	c8 16       	cp	r12, r24
    147e:	d9 06       	cpc	r13, r25
    1480:	14 f0       	brlt	.+4      	; 0x1486 <vfprintf+0x29a>
    1482:	99 24       	eor	r9, r9
    1484:	01 c0       	rjmp	.+2      	; 0x1488 <vfprintf+0x29c>
    1486:	9c 18       	sub	r9, r12
    1488:	f7 fc       	sbrc	r15, 7
    148a:	03 c0       	rjmp	.+6      	; 0x1492 <vfprintf+0x2a6>
    148c:	25 e0       	ldi	r18, 0x05	; 5
    148e:	30 e0       	ldi	r19, 0x00	; 0
    1490:	09 c0       	rjmp	.+18     	; 0x14a4 <vfprintf+0x2b8>
    1492:	1c 14       	cp	r1, r12
    1494:	1d 04       	cpc	r1, r13
    1496:	1c f0       	brlt	.+6      	; 0x149e <vfprintf+0x2b2>
    1498:	21 e0       	ldi	r18, 0x01	; 1
    149a:	30 e0       	ldi	r19, 0x00	; 0
    149c:	03 c0       	rjmp	.+6      	; 0x14a4 <vfprintf+0x2b8>
    149e:	96 01       	movw	r18, r12
    14a0:	2f 5f       	subi	r18, 0xFF	; 255
    14a2:	3f 4f       	sbci	r19, 0xFF	; 255
    14a4:	11 23       	and	r17, r17
    14a6:	11 f0       	breq	.+4      	; 0x14ac <vfprintf+0x2c0>
    14a8:	2f 5f       	subi	r18, 0xFF	; 255
    14aa:	3f 4f       	sbci	r19, 0xFF	; 255
    14ac:	99 20       	and	r9, r9
    14ae:	29 f0       	breq	.+10     	; 0x14ba <vfprintf+0x2ce>
    14b0:	89 2d       	mov	r24, r9
    14b2:	90 e0       	ldi	r25, 0x00	; 0
    14b4:	01 96       	adiw	r24, 0x01	; 1
    14b6:	28 0f       	add	r18, r24
    14b8:	39 1f       	adc	r19, r25
    14ba:	88 2d       	mov	r24, r8
    14bc:	90 e0       	ldi	r25, 0x00	; 0
    14be:	28 17       	cp	r18, r24
    14c0:	39 07       	cpc	r19, r25
    14c2:	14 f0       	brlt	.+4      	; 0x14c8 <vfprintf+0x2dc>
    14c4:	88 24       	eor	r8, r8
    14c6:	01 c0       	rjmp	.+2      	; 0x14ca <vfprintf+0x2de>
    14c8:	82 1a       	sub	r8, r18
    14ca:	4f 2c       	mov	r4, r15
    14cc:	55 24       	eor	r5, r5
    14ce:	c2 01       	movw	r24, r4
    14d0:	89 70       	andi	r24, 0x09	; 9
    14d2:	90 70       	andi	r25, 0x00	; 0
    14d4:	89 2b       	or	r24, r25
    14d6:	39 f0       	breq	.+14     	; 0x14e6 <vfprintf+0x2fa>
    14d8:	08 c0       	rjmp	.+16     	; 0x14ea <vfprintf+0x2fe>
    14da:	80 e2       	ldi	r24, 0x20	; 32
    14dc:	90 e0       	ldi	r25, 0x00	; 0
    14de:	b3 01       	movw	r22, r6
    14e0:	0e 94 c9 0d 	call	0x1b92	; 0x1b92 <fputc>
    14e4:	8a 94       	dec	r8
    14e6:	88 20       	and	r8, r8
    14e8:	c1 f7       	brne	.-16     	; 0x14da <vfprintf+0x2ee>
    14ea:	11 23       	and	r17, r17
    14ec:	29 f0       	breq	.+10     	; 0x14f8 <vfprintf+0x30c>
    14ee:	81 2f       	mov	r24, r17
    14f0:	90 e0       	ldi	r25, 0x00	; 0
    14f2:	b3 01       	movw	r22, r6
    14f4:	0e 94 c9 0d 	call	0x1b92	; 0x1b92 <fputc>
    14f8:	43 fe       	sbrs	r4, 3
    14fa:	07 c0       	rjmp	.+14     	; 0x150a <vfprintf+0x31e>
    14fc:	08 c0       	rjmp	.+16     	; 0x150e <vfprintf+0x322>
    14fe:	80 e3       	ldi	r24, 0x30	; 48
    1500:	90 e0       	ldi	r25, 0x00	; 0
    1502:	b3 01       	movw	r22, r6
    1504:	0e 94 c9 0d 	call	0x1b92	; 0x1b92 <fputc>
    1508:	8a 94       	dec	r8
    150a:	88 20       	and	r8, r8
    150c:	c1 f7       	brne	.-16     	; 0x14fe <vfprintf+0x312>
    150e:	f7 fe       	sbrs	r15, 7
    1510:	46 c0       	rjmp	.+140    	; 0x159e <vfprintf+0x3b2>
    1512:	86 01       	movw	r16, r12
    1514:	d7 fe       	sbrs	r13, 7
    1516:	02 c0       	rjmp	.+4      	; 0x151c <vfprintf+0x330>
    1518:	00 e0       	ldi	r16, 0x00	; 0
    151a:	10 e0       	ldi	r17, 0x00	; 0
    151c:	76 01       	movw	r14, r12
    151e:	08 94       	sec
    1520:	e1 1c       	adc	r14, r1
    1522:	f1 1c       	adc	r15, r1
    1524:	e0 1a       	sub	r14, r16
    1526:	f1 0a       	sbc	r15, r17
    1528:	41 e0       	ldi	r20, 0x01	; 1
    152a:	50 e0       	ldi	r21, 0x00	; 0
    152c:	4c 0f       	add	r20, r28
    152e:	5d 1f       	adc	r21, r29
    1530:	e4 0e       	add	r14, r20
    1532:	f5 1e       	adc	r15, r21
    1534:	26 01       	movw	r4, r12
    1536:	4b 18       	sub	r4, r11
    1538:	51 08       	sbc	r5, r1
    153a:	89 2d       	mov	r24, r9
    153c:	90 e0       	ldi	r25, 0x00	; 0
    153e:	aa 24       	eor	r10, r10
    1540:	bb 24       	eor	r11, r11
    1542:	a8 1a       	sub	r10, r24
    1544:	b9 0a       	sbc	r11, r25
    1546:	5f ef       	ldi	r21, 0xFF	; 255
    1548:	0f 3f       	cpi	r16, 0xFF	; 255
    154a:	15 07       	cpc	r17, r21
    154c:	29 f4       	brne	.+10     	; 0x1558 <vfprintf+0x36c>
    154e:	8e e2       	ldi	r24, 0x2E	; 46
    1550:	90 e0       	ldi	r25, 0x00	; 0
    1552:	b3 01       	movw	r22, r6
    1554:	0e 94 c9 0d 	call	0x1b92	; 0x1b92 <fputc>
    1558:	c0 16       	cp	r12, r16
    155a:	d1 06       	cpc	r13, r17
    155c:	34 f0       	brlt	.+12     	; 0x156a <vfprintf+0x37e>
    155e:	40 16       	cp	r4, r16
    1560:	51 06       	cpc	r5, r17
    1562:	1c f4       	brge	.+6      	; 0x156a <vfprintf+0x37e>
    1564:	f7 01       	movw	r30, r14
    1566:	80 81       	ld	r24, Z
    1568:	01 c0       	rjmp	.+2      	; 0x156c <vfprintf+0x380>
    156a:	80 e3       	ldi	r24, 0x30	; 48
    156c:	01 50       	subi	r16, 0x01	; 1
    156e:	10 40       	sbci	r17, 0x00	; 0
    1570:	08 94       	sec
    1572:	e1 1c       	adc	r14, r1
    1574:	f1 1c       	adc	r15, r1
    1576:	0a 15       	cp	r16, r10
    1578:	1b 05       	cpc	r17, r11
    157a:	2c f0       	brlt	.+10     	; 0x1586 <vfprintf+0x39a>
    157c:	90 e0       	ldi	r25, 0x00	; 0
    157e:	b3 01       	movw	r22, r6
    1580:	0e 94 c9 0d 	call	0x1b92	; 0x1b92 <fputc>
    1584:	e0 cf       	rjmp	.-64     	; 0x1546 <vfprintf+0x35a>
    1586:	0c 15       	cp	r16, r12
    1588:	1d 05       	cpc	r17, r13
    158a:	39 f4       	brne	.+14     	; 0x159a <vfprintf+0x3ae>
    158c:	9a 81       	ldd	r25, Y+2	; 0x02
    158e:	96 33       	cpi	r25, 0x36	; 54
    1590:	18 f4       	brcc	.+6      	; 0x1598 <vfprintf+0x3ac>
    1592:	95 33       	cpi	r25, 0x35	; 53
    1594:	11 f4       	brne	.+4      	; 0x159a <vfprintf+0x3ae>
    1596:	24 fe       	sbrs	r2, 4
    1598:	81 e3       	ldi	r24, 0x31	; 49
    159a:	90 e0       	ldi	r25, 0x00	; 0
    159c:	4b c0       	rjmp	.+150    	; 0x1634 <vfprintf+0x448>
    159e:	8a 81       	ldd	r24, Y+2	; 0x02
    15a0:	81 33       	cpi	r24, 0x31	; 49
    15a2:	09 f0       	breq	.+2      	; 0x15a6 <vfprintf+0x3ba>
    15a4:	0f 7e       	andi	r16, 0xEF	; 239
    15a6:	90 e0       	ldi	r25, 0x00	; 0
    15a8:	b3 01       	movw	r22, r6
    15aa:	0e 94 c9 0d 	call	0x1b92	; 0x1b92 <fputc>
    15ae:	99 20       	and	r9, r9
    15b0:	a1 f0       	breq	.+40     	; 0x15da <vfprintf+0x3ee>
    15b2:	8e e2       	ldi	r24, 0x2E	; 46
    15b4:	90 e0       	ldi	r25, 0x00	; 0
    15b6:	b3 01       	movw	r22, r6
    15b8:	0e 94 c9 0d 	call	0x1b92	; 0x1b92 <fputc>
    15bc:	12 e0       	ldi	r17, 0x02	; 2
    15be:	e1 e0       	ldi	r30, 0x01	; 1
    15c0:	f0 e0       	ldi	r31, 0x00	; 0
    15c2:	ec 0f       	add	r30, r28
    15c4:	fd 1f       	adc	r31, r29
    15c6:	e1 0f       	add	r30, r17
    15c8:	f1 1d       	adc	r31, r1
    15ca:	1f 5f       	subi	r17, 0xFF	; 255
    15cc:	80 81       	ld	r24, Z
    15ce:	90 e0       	ldi	r25, 0x00	; 0
    15d0:	b3 01       	movw	r22, r6
    15d2:	0e 94 c9 0d 	call	0x1b92	; 0x1b92 <fputc>
    15d6:	9a 94       	dec	r9
    15d8:	91 f7       	brne	.-28     	; 0x15be <vfprintf+0x3d2>
    15da:	44 fc       	sbrc	r4, 4
    15dc:	03 c0       	rjmp	.+6      	; 0x15e4 <vfprintf+0x3f8>
    15de:	85 e6       	ldi	r24, 0x65	; 101
    15e0:	90 e0       	ldi	r25, 0x00	; 0
    15e2:	02 c0       	rjmp	.+4      	; 0x15e8 <vfprintf+0x3fc>
    15e4:	85 e4       	ldi	r24, 0x45	; 69
    15e6:	90 e0       	ldi	r25, 0x00	; 0
    15e8:	b3 01       	movw	r22, r6
    15ea:	0e 94 c9 0d 	call	0x1b92	; 0x1b92 <fputc>
    15ee:	d7 fc       	sbrc	r13, 7
    15f0:	05 c0       	rjmp	.+10     	; 0x15fc <vfprintf+0x410>
    15f2:	c1 14       	cp	r12, r1
    15f4:	d1 04       	cpc	r13, r1
    15f6:	41 f4       	brne	.+16     	; 0x1608 <vfprintf+0x41c>
    15f8:	04 ff       	sbrs	r16, 4
    15fa:	06 c0       	rjmp	.+12     	; 0x1608 <vfprintf+0x41c>
    15fc:	d0 94       	com	r13
    15fe:	c1 94       	neg	r12
    1600:	d1 08       	sbc	r13, r1
    1602:	d3 94       	inc	r13
    1604:	8d e2       	ldi	r24, 0x2D	; 45
    1606:	01 c0       	rjmp	.+2      	; 0x160a <vfprintf+0x41e>
    1608:	8b e2       	ldi	r24, 0x2B	; 43
    160a:	90 e0       	ldi	r25, 0x00	; 0
    160c:	b3 01       	movw	r22, r6
    160e:	0e 94 c9 0d 	call	0x1b92	; 0x1b92 <fputc>
    1612:	80 e3       	ldi	r24, 0x30	; 48
    1614:	05 c0       	rjmp	.+10     	; 0x1620 <vfprintf+0x434>
    1616:	8f 5f       	subi	r24, 0xFF	; 255
    1618:	26 ef       	ldi	r18, 0xF6	; 246
    161a:	3f ef       	ldi	r19, 0xFF	; 255
    161c:	c2 0e       	add	r12, r18
    161e:	d3 1e       	adc	r13, r19
    1620:	3a e0       	ldi	r19, 0x0A	; 10
    1622:	c3 16       	cp	r12, r19
    1624:	d1 04       	cpc	r13, r1
    1626:	bc f7       	brge	.-18     	; 0x1616 <vfprintf+0x42a>
    1628:	90 e0       	ldi	r25, 0x00	; 0
    162a:	b3 01       	movw	r22, r6
    162c:	0e 94 c9 0d 	call	0x1b92	; 0x1b92 <fputc>
    1630:	c6 01       	movw	r24, r12
    1632:	c0 96       	adiw	r24, 0x30	; 48
    1634:	b3 01       	movw	r22, r6
    1636:	0e 94 c9 0d 	call	0x1b92	; 0x1b92 <fputc>
    163a:	cc 84       	ldd	r12, Y+12	; 0x0c
    163c:	dd 84       	ldd	r13, Y+13	; 0x0d
    163e:	52 c1       	rjmp	.+676    	; 0x18e4 <vfprintf+0x6f8>
    1640:	93 36       	cpi	r25, 0x63	; 99
    1642:	31 f0       	breq	.+12     	; 0x1650 <vfprintf+0x464>
    1644:	93 37       	cpi	r25, 0x73	; 115
    1646:	99 f0       	breq	.+38     	; 0x166e <vfprintf+0x482>
    1648:	93 35       	cpi	r25, 0x53	; 83
    164a:	09 f0       	breq	.+2      	; 0x164e <vfprintf+0x462>
    164c:	59 c0       	rjmp	.+178    	; 0x1700 <vfprintf+0x514>
    164e:	23 c0       	rjmp	.+70     	; 0x1696 <vfprintf+0x4aa>
    1650:	f6 01       	movw	r30, r12
    1652:	80 81       	ld	r24, Z
    1654:	89 83       	std	Y+1, r24	; 0x01
    1656:	5e 01       	movw	r10, r28
    1658:	08 94       	sec
    165a:	a1 1c       	adc	r10, r1
    165c:	b1 1c       	adc	r11, r1
    165e:	22 e0       	ldi	r18, 0x02	; 2
    1660:	30 e0       	ldi	r19, 0x00	; 0
    1662:	c2 0e       	add	r12, r18
    1664:	d3 1e       	adc	r13, r19
    1666:	21 e0       	ldi	r18, 0x01	; 1
    1668:	e2 2e       	mov	r14, r18
    166a:	f1 2c       	mov	r15, r1
    166c:	12 c0       	rjmp	.+36     	; 0x1692 <vfprintf+0x4a6>
    166e:	f6 01       	movw	r30, r12
    1670:	a0 80       	ld	r10, Z
    1672:	b1 80       	ldd	r11, Z+1	; 0x01
    1674:	16 fd       	sbrc	r17, 6
    1676:	03 c0       	rjmp	.+6      	; 0x167e <vfprintf+0x492>
    1678:	6f ef       	ldi	r22, 0xFF	; 255
    167a:	7f ef       	ldi	r23, 0xFF	; 255
    167c:	02 c0       	rjmp	.+4      	; 0x1682 <vfprintf+0x496>
    167e:	69 2d       	mov	r22, r9
    1680:	70 e0       	ldi	r23, 0x00	; 0
    1682:	22 e0       	ldi	r18, 0x02	; 2
    1684:	30 e0       	ldi	r19, 0x00	; 0
    1686:	c2 0e       	add	r12, r18
    1688:	d3 1e       	adc	r13, r19
    168a:	c5 01       	movw	r24, r10
    168c:	0e 94 be 0d 	call	0x1b7c	; 0x1b7c <strnlen>
    1690:	7c 01       	movw	r14, r24
    1692:	1f 77       	andi	r17, 0x7F	; 127
    1694:	13 c0       	rjmp	.+38     	; 0x16bc <vfprintf+0x4d0>
    1696:	f6 01       	movw	r30, r12
    1698:	a0 80       	ld	r10, Z
    169a:	b1 80       	ldd	r11, Z+1	; 0x01
    169c:	16 fd       	sbrc	r17, 6
    169e:	03 c0       	rjmp	.+6      	; 0x16a6 <vfprintf+0x4ba>
    16a0:	6f ef       	ldi	r22, 0xFF	; 255
    16a2:	7f ef       	ldi	r23, 0xFF	; 255
    16a4:	02 c0       	rjmp	.+4      	; 0x16aa <vfprintf+0x4be>
    16a6:	69 2d       	mov	r22, r9
    16a8:	70 e0       	ldi	r23, 0x00	; 0
    16aa:	22 e0       	ldi	r18, 0x02	; 2
    16ac:	30 e0       	ldi	r19, 0x00	; 0
    16ae:	c2 0e       	add	r12, r18
    16b0:	d3 1e       	adc	r13, r19
    16b2:	c5 01       	movw	r24, r10
    16b4:	0e 94 b3 0d 	call	0x1b66	; 0x1b66 <strnlen_P>
    16b8:	7c 01       	movw	r14, r24
    16ba:	10 68       	ori	r17, 0x80	; 128
    16bc:	13 ff       	sbrs	r17, 3
    16be:	07 c0       	rjmp	.+14     	; 0x16ce <vfprintf+0x4e2>
    16c0:	1b c0       	rjmp	.+54     	; 0x16f8 <vfprintf+0x50c>
    16c2:	80 e2       	ldi	r24, 0x20	; 32
    16c4:	90 e0       	ldi	r25, 0x00	; 0
    16c6:	b3 01       	movw	r22, r6
    16c8:	0e 94 c9 0d 	call	0x1b92	; 0x1b92 <fputc>
    16cc:	8a 94       	dec	r8
    16ce:	88 2d       	mov	r24, r8
    16d0:	90 e0       	ldi	r25, 0x00	; 0
    16d2:	e8 16       	cp	r14, r24
    16d4:	f9 06       	cpc	r15, r25
    16d6:	a8 f3       	brcs	.-22     	; 0x16c2 <vfprintf+0x4d6>
    16d8:	0f c0       	rjmp	.+30     	; 0x16f8 <vfprintf+0x50c>
    16da:	f5 01       	movw	r30, r10
    16dc:	17 fd       	sbrc	r17, 7
    16de:	85 91       	lpm	r24, Z+
    16e0:	17 ff       	sbrs	r17, 7
    16e2:	81 91       	ld	r24, Z+
    16e4:	5f 01       	movw	r10, r30
    16e6:	90 e0       	ldi	r25, 0x00	; 0
    16e8:	b3 01       	movw	r22, r6
    16ea:	0e 94 c9 0d 	call	0x1b92	; 0x1b92 <fputc>
    16ee:	81 10       	cpse	r8, r1
    16f0:	8a 94       	dec	r8
    16f2:	08 94       	sec
    16f4:	e1 08       	sbc	r14, r1
    16f6:	f1 08       	sbc	r15, r1
    16f8:	e1 14       	cp	r14, r1
    16fa:	f1 04       	cpc	r15, r1
    16fc:	71 f7       	brne	.-36     	; 0x16da <vfprintf+0x4ee>
    16fe:	f2 c0       	rjmp	.+484    	; 0x18e4 <vfprintf+0x6f8>
    1700:	94 36       	cpi	r25, 0x64	; 100
    1702:	11 f0       	breq	.+4      	; 0x1708 <vfprintf+0x51c>
    1704:	99 36       	cpi	r25, 0x69	; 105
    1706:	89 f5       	brne	.+98     	; 0x176a <vfprintf+0x57e>
    1708:	17 ff       	sbrs	r17, 7
    170a:	08 c0       	rjmp	.+16     	; 0x171c <vfprintf+0x530>
    170c:	f6 01       	movw	r30, r12
    170e:	20 81       	ld	r18, Z
    1710:	31 81       	ldd	r19, Z+1	; 0x01
    1712:	42 81       	ldd	r20, Z+2	; 0x02
    1714:	53 81       	ldd	r21, Z+3	; 0x03
    1716:	84 e0       	ldi	r24, 0x04	; 4
    1718:	90 e0       	ldi	r25, 0x00	; 0
    171a:	0a c0       	rjmp	.+20     	; 0x1730 <vfprintf+0x544>
    171c:	f6 01       	movw	r30, r12
    171e:	80 81       	ld	r24, Z
    1720:	91 81       	ldd	r25, Z+1	; 0x01
    1722:	9c 01       	movw	r18, r24
    1724:	44 27       	eor	r20, r20
    1726:	37 fd       	sbrc	r19, 7
    1728:	40 95       	com	r20
    172a:	54 2f       	mov	r21, r20
    172c:	82 e0       	ldi	r24, 0x02	; 2
    172e:	90 e0       	ldi	r25, 0x00	; 0
    1730:	c8 0e       	add	r12, r24
    1732:	d9 1e       	adc	r13, r25
    1734:	9f e6       	ldi	r25, 0x6F	; 111
    1736:	f9 2e       	mov	r15, r25
    1738:	f1 22       	and	r15, r17
    173a:	57 ff       	sbrs	r21, 7
    173c:	09 c0       	rjmp	.+18     	; 0x1750 <vfprintf+0x564>
    173e:	50 95       	com	r21
    1740:	40 95       	com	r20
    1742:	30 95       	com	r19
    1744:	21 95       	neg	r18
    1746:	3f 4f       	sbci	r19, 0xFF	; 255
    1748:	4f 4f       	sbci	r20, 0xFF	; 255
    174a:	5f 4f       	sbci	r21, 0xFF	; 255
    174c:	90 e8       	ldi	r25, 0x80	; 128
    174e:	f9 2a       	or	r15, r25
    1750:	ca 01       	movw	r24, r20
    1752:	b9 01       	movw	r22, r18
    1754:	ae 01       	movw	r20, r28
    1756:	4f 5f       	subi	r20, 0xFF	; 255
    1758:	5f 4f       	sbci	r21, 0xFF	; 255
    175a:	2a e0       	ldi	r18, 0x0A	; 10
    175c:	30 e0       	ldi	r19, 0x00	; 0
    175e:	0e 94 5b 0e 	call	0x1cb6	; 0x1cb6 <__ultoa_invert>
    1762:	e8 2e       	mov	r14, r24
    1764:	e8 89       	ldd	r30, Y+16	; 0x10
    1766:	ee 1a       	sub	r14, r30
    1768:	41 c0       	rjmp	.+130    	; 0x17ec <vfprintf+0x600>
    176a:	95 37       	cpi	r25, 0x75	; 117
    176c:	21 f4       	brne	.+8      	; 0x1776 <vfprintf+0x58a>
    176e:	1f 7e       	andi	r17, 0xEF	; 239
    1770:	2a e0       	ldi	r18, 0x0A	; 10
    1772:	30 e0       	ldi	r19, 0x00	; 0
    1774:	1c c0       	rjmp	.+56     	; 0x17ae <vfprintf+0x5c2>
    1776:	19 7f       	andi	r17, 0xF9	; 249
    1778:	9f 36       	cpi	r25, 0x6F	; 111
    177a:	61 f0       	breq	.+24     	; 0x1794 <vfprintf+0x5a8>
    177c:	90 37       	cpi	r25, 0x70	; 112
    177e:	20 f4       	brcc	.+8      	; 0x1788 <vfprintf+0x59c>
    1780:	98 35       	cpi	r25, 0x58	; 88
    1782:	09 f0       	breq	.+2      	; 0x1786 <vfprintf+0x59a>
    1784:	b2 c0       	rjmp	.+356    	; 0x18ea <vfprintf+0x6fe>
    1786:	0f c0       	rjmp	.+30     	; 0x17a6 <vfprintf+0x5ba>
    1788:	90 37       	cpi	r25, 0x70	; 112
    178a:	39 f0       	breq	.+14     	; 0x179a <vfprintf+0x5ae>
    178c:	98 37       	cpi	r25, 0x78	; 120
    178e:	09 f0       	breq	.+2      	; 0x1792 <vfprintf+0x5a6>
    1790:	ac c0       	rjmp	.+344    	; 0x18ea <vfprintf+0x6fe>
    1792:	04 c0       	rjmp	.+8      	; 0x179c <vfprintf+0x5b0>
    1794:	28 e0       	ldi	r18, 0x08	; 8
    1796:	30 e0       	ldi	r19, 0x00	; 0
    1798:	0a c0       	rjmp	.+20     	; 0x17ae <vfprintf+0x5c2>
    179a:	10 61       	ori	r17, 0x10	; 16
    179c:	14 fd       	sbrc	r17, 4
    179e:	14 60       	ori	r17, 0x04	; 4
    17a0:	20 e1       	ldi	r18, 0x10	; 16
    17a2:	30 e0       	ldi	r19, 0x00	; 0
    17a4:	04 c0       	rjmp	.+8      	; 0x17ae <vfprintf+0x5c2>
    17a6:	14 fd       	sbrc	r17, 4
    17a8:	16 60       	ori	r17, 0x06	; 6
    17aa:	20 e1       	ldi	r18, 0x10	; 16
    17ac:	32 e0       	ldi	r19, 0x02	; 2
    17ae:	17 ff       	sbrs	r17, 7
    17b0:	08 c0       	rjmp	.+16     	; 0x17c2 <vfprintf+0x5d6>
    17b2:	f6 01       	movw	r30, r12
    17b4:	60 81       	ld	r22, Z
    17b6:	71 81       	ldd	r23, Z+1	; 0x01
    17b8:	82 81       	ldd	r24, Z+2	; 0x02
    17ba:	93 81       	ldd	r25, Z+3	; 0x03
    17bc:	44 e0       	ldi	r20, 0x04	; 4
    17be:	50 e0       	ldi	r21, 0x00	; 0
    17c0:	08 c0       	rjmp	.+16     	; 0x17d2 <vfprintf+0x5e6>
    17c2:	f6 01       	movw	r30, r12
    17c4:	80 81       	ld	r24, Z
    17c6:	91 81       	ldd	r25, Z+1	; 0x01
    17c8:	bc 01       	movw	r22, r24
    17ca:	80 e0       	ldi	r24, 0x00	; 0
    17cc:	90 e0       	ldi	r25, 0x00	; 0
    17ce:	42 e0       	ldi	r20, 0x02	; 2
    17d0:	50 e0       	ldi	r21, 0x00	; 0
    17d2:	c4 0e       	add	r12, r20
    17d4:	d5 1e       	adc	r13, r21
    17d6:	ae 01       	movw	r20, r28
    17d8:	4f 5f       	subi	r20, 0xFF	; 255
    17da:	5f 4f       	sbci	r21, 0xFF	; 255
    17dc:	0e 94 5b 0e 	call	0x1cb6	; 0x1cb6 <__ultoa_invert>
    17e0:	e8 2e       	mov	r14, r24
    17e2:	58 89       	ldd	r21, Y+16	; 0x10
    17e4:	e5 1a       	sub	r14, r21
    17e6:	8f e7       	ldi	r24, 0x7F	; 127
    17e8:	f8 2e       	mov	r15, r24
    17ea:	f1 22       	and	r15, r17
    17ec:	f6 fe       	sbrs	r15, 6
    17ee:	0b c0       	rjmp	.+22     	; 0x1806 <vfprintf+0x61a>
    17f0:	8e ef       	ldi	r24, 0xFE	; 254
    17f2:	f8 22       	and	r15, r24
    17f4:	e9 14       	cp	r14, r9
    17f6:	38 f4       	brcc	.+14     	; 0x1806 <vfprintf+0x61a>
    17f8:	f4 fe       	sbrs	r15, 4
    17fa:	07 c0       	rjmp	.+14     	; 0x180a <vfprintf+0x61e>
    17fc:	f2 fc       	sbrc	r15, 2
    17fe:	05 c0       	rjmp	.+10     	; 0x180a <vfprintf+0x61e>
    1800:	9f ee       	ldi	r25, 0xEF	; 239
    1802:	f9 22       	and	r15, r25
    1804:	02 c0       	rjmp	.+4      	; 0x180a <vfprintf+0x61e>
    1806:	1e 2d       	mov	r17, r14
    1808:	01 c0       	rjmp	.+2      	; 0x180c <vfprintf+0x620>
    180a:	19 2d       	mov	r17, r9
    180c:	f4 fe       	sbrs	r15, 4
    180e:	0d c0       	rjmp	.+26     	; 0x182a <vfprintf+0x63e>
    1810:	fe 01       	movw	r30, r28
    1812:	ee 0d       	add	r30, r14
    1814:	f1 1d       	adc	r31, r1
    1816:	80 81       	ld	r24, Z
    1818:	80 33       	cpi	r24, 0x30	; 48
    181a:	19 f4       	brne	.+6      	; 0x1822 <vfprintf+0x636>
    181c:	e9 ee       	ldi	r30, 0xE9	; 233
    181e:	fe 22       	and	r15, r30
    1820:	08 c0       	rjmp	.+16     	; 0x1832 <vfprintf+0x646>
    1822:	1f 5f       	subi	r17, 0xFF	; 255
    1824:	f2 fe       	sbrs	r15, 2
    1826:	05 c0       	rjmp	.+10     	; 0x1832 <vfprintf+0x646>
    1828:	03 c0       	rjmp	.+6      	; 0x1830 <vfprintf+0x644>
    182a:	8f 2d       	mov	r24, r15
    182c:	86 78       	andi	r24, 0x86	; 134
    182e:	09 f0       	breq	.+2      	; 0x1832 <vfprintf+0x646>
    1830:	1f 5f       	subi	r17, 0xFF	; 255
    1832:	0f 2d       	mov	r16, r15
    1834:	f3 fc       	sbrc	r15, 3
    1836:	14 c0       	rjmp	.+40     	; 0x1860 <vfprintf+0x674>
    1838:	f0 fe       	sbrs	r15, 0
    183a:	0f c0       	rjmp	.+30     	; 0x185a <vfprintf+0x66e>
    183c:	18 15       	cp	r17, r8
    183e:	10 f0       	brcs	.+4      	; 0x1844 <vfprintf+0x658>
    1840:	9e 2c       	mov	r9, r14
    1842:	0b c0       	rjmp	.+22     	; 0x185a <vfprintf+0x66e>
    1844:	9e 2c       	mov	r9, r14
    1846:	98 0c       	add	r9, r8
    1848:	91 1a       	sub	r9, r17
    184a:	18 2d       	mov	r17, r8
    184c:	06 c0       	rjmp	.+12     	; 0x185a <vfprintf+0x66e>
    184e:	80 e2       	ldi	r24, 0x20	; 32
    1850:	90 e0       	ldi	r25, 0x00	; 0
    1852:	b3 01       	movw	r22, r6
    1854:	0e 94 c9 0d 	call	0x1b92	; 0x1b92 <fputc>
    1858:	1f 5f       	subi	r17, 0xFF	; 255
    185a:	18 15       	cp	r17, r8
    185c:	c0 f3       	brcs	.-16     	; 0x184e <vfprintf+0x662>
    185e:	04 c0       	rjmp	.+8      	; 0x1868 <vfprintf+0x67c>
    1860:	18 15       	cp	r17, r8
    1862:	10 f4       	brcc	.+4      	; 0x1868 <vfprintf+0x67c>
    1864:	81 1a       	sub	r8, r17
    1866:	01 c0       	rjmp	.+2      	; 0x186a <vfprintf+0x67e>
    1868:	88 24       	eor	r8, r8
    186a:	04 ff       	sbrs	r16, 4
    186c:	0f c0       	rjmp	.+30     	; 0x188c <vfprintf+0x6a0>
    186e:	80 e3       	ldi	r24, 0x30	; 48
    1870:	90 e0       	ldi	r25, 0x00	; 0
    1872:	b3 01       	movw	r22, r6
    1874:	0e 94 c9 0d 	call	0x1b92	; 0x1b92 <fputc>
    1878:	02 ff       	sbrs	r16, 2
    187a:	1d c0       	rjmp	.+58     	; 0x18b6 <vfprintf+0x6ca>
    187c:	01 fd       	sbrc	r16, 1
    187e:	03 c0       	rjmp	.+6      	; 0x1886 <vfprintf+0x69a>
    1880:	88 e7       	ldi	r24, 0x78	; 120
    1882:	90 e0       	ldi	r25, 0x00	; 0
    1884:	0e c0       	rjmp	.+28     	; 0x18a2 <vfprintf+0x6b6>
    1886:	88 e5       	ldi	r24, 0x58	; 88
    1888:	90 e0       	ldi	r25, 0x00	; 0
    188a:	0b c0       	rjmp	.+22     	; 0x18a2 <vfprintf+0x6b6>
    188c:	80 2f       	mov	r24, r16
    188e:	86 78       	andi	r24, 0x86	; 134
    1890:	91 f0       	breq	.+36     	; 0x18b6 <vfprintf+0x6ca>
    1892:	01 ff       	sbrs	r16, 1
    1894:	02 c0       	rjmp	.+4      	; 0x189a <vfprintf+0x6ae>
    1896:	8b e2       	ldi	r24, 0x2B	; 43
    1898:	01 c0       	rjmp	.+2      	; 0x189c <vfprintf+0x6b0>
    189a:	80 e2       	ldi	r24, 0x20	; 32
    189c:	f7 fc       	sbrc	r15, 7
    189e:	8d e2       	ldi	r24, 0x2D	; 45
    18a0:	90 e0       	ldi	r25, 0x00	; 0
    18a2:	b3 01       	movw	r22, r6
    18a4:	0e 94 c9 0d 	call	0x1b92	; 0x1b92 <fputc>
    18a8:	06 c0       	rjmp	.+12     	; 0x18b6 <vfprintf+0x6ca>
    18aa:	80 e3       	ldi	r24, 0x30	; 48
    18ac:	90 e0       	ldi	r25, 0x00	; 0
    18ae:	b3 01       	movw	r22, r6
    18b0:	0e 94 c9 0d 	call	0x1b92	; 0x1b92 <fputc>
    18b4:	9a 94       	dec	r9
    18b6:	e9 14       	cp	r14, r9
    18b8:	c0 f3       	brcs	.-16     	; 0x18aa <vfprintf+0x6be>
    18ba:	ea 94       	dec	r14
    18bc:	e1 e0       	ldi	r30, 0x01	; 1
    18be:	f0 e0       	ldi	r31, 0x00	; 0
    18c0:	ec 0f       	add	r30, r28
    18c2:	fd 1f       	adc	r31, r29
    18c4:	ee 0d       	add	r30, r14
    18c6:	f1 1d       	adc	r31, r1
    18c8:	80 81       	ld	r24, Z
    18ca:	90 e0       	ldi	r25, 0x00	; 0
    18cc:	b3 01       	movw	r22, r6
    18ce:	0e 94 c9 0d 	call	0x1b92	; 0x1b92 <fputc>
    18d2:	ee 20       	and	r14, r14
    18d4:	91 f7       	brne	.-28     	; 0x18ba <vfprintf+0x6ce>
    18d6:	06 c0       	rjmp	.+12     	; 0x18e4 <vfprintf+0x6f8>
    18d8:	80 e2       	ldi	r24, 0x20	; 32
    18da:	90 e0       	ldi	r25, 0x00	; 0
    18dc:	b3 01       	movw	r22, r6
    18de:	0e 94 c9 0d 	call	0x1b92	; 0x1b92 <fputc>
    18e2:	8a 94       	dec	r8
    18e4:	88 20       	and	r8, r8
    18e6:	c1 f7       	brne	.-16     	; 0x18d8 <vfprintf+0x6ec>
    18e8:	99 cc       	rjmp	.-1742   	; 0x121c <vfprintf+0x30>
    18ea:	f3 01       	movw	r30, r6
    18ec:	66 81       	ldd	r22, Z+6	; 0x06
    18ee:	77 81       	ldd	r23, Z+7	; 0x07
    18f0:	cb 01       	movw	r24, r22
    18f2:	61 96       	adiw	r28, 0x11	; 17
    18f4:	e2 e1       	ldi	r30, 0x12	; 18
    18f6:	0c 94 c0 0c 	jmp	0x1980	; 0x1980 <__epilogue_restores__>

000018fa <__udivmodhi4>:
    18fa:	aa 1b       	sub	r26, r26
    18fc:	bb 1b       	sub	r27, r27
    18fe:	51 e1       	ldi	r21, 0x11	; 17
    1900:	07 c0       	rjmp	.+14     	; 0x1910 <__udivmodhi4_ep>

00001902 <__udivmodhi4_loop>:
    1902:	aa 1f       	adc	r26, r26
    1904:	bb 1f       	adc	r27, r27
    1906:	a6 17       	cp	r26, r22
    1908:	b7 07       	cpc	r27, r23
    190a:	10 f0       	brcs	.+4      	; 0x1910 <__udivmodhi4_ep>
    190c:	a6 1b       	sub	r26, r22
    190e:	b7 0b       	sbc	r27, r23

00001910 <__udivmodhi4_ep>:
    1910:	88 1f       	adc	r24, r24
    1912:	99 1f       	adc	r25, r25
    1914:	5a 95       	dec	r21
    1916:	a9 f7       	brne	.-22     	; 0x1902 <__udivmodhi4_loop>
    1918:	80 95       	com	r24
    191a:	90 95       	com	r25
    191c:	bc 01       	movw	r22, r24
    191e:	cd 01       	movw	r24, r26
    1920:	08 95       	ret

00001922 <__divmodhi4>:
    1922:	97 fb       	bst	r25, 7
    1924:	09 2e       	mov	r0, r25
    1926:	07 26       	eor	r0, r23
    1928:	0a d0       	rcall	.+20     	; 0x193e <__divmodhi4_neg1>
    192a:	77 fd       	sbrc	r23, 7
    192c:	04 d0       	rcall	.+8      	; 0x1936 <__divmodhi4_neg2>
    192e:	e5 df       	rcall	.-54     	; 0x18fa <__udivmodhi4>
    1930:	06 d0       	rcall	.+12     	; 0x193e <__divmodhi4_neg1>
    1932:	00 20       	and	r0, r0
    1934:	1a f4       	brpl	.+6      	; 0x193c <__divmodhi4_exit>

00001936 <__divmodhi4_neg2>:
    1936:	70 95       	com	r23
    1938:	61 95       	neg	r22
    193a:	7f 4f       	sbci	r23, 0xFF	; 255

0000193c <__divmodhi4_exit>:
    193c:	08 95       	ret

0000193e <__divmodhi4_neg1>:
    193e:	f6 f7       	brtc	.-4      	; 0x193c <__divmodhi4_exit>
    1940:	90 95       	com	r25
    1942:	81 95       	neg	r24
    1944:	9f 4f       	sbci	r25, 0xFF	; 255
    1946:	08 95       	ret

00001948 <__prologue_saves__>:
    1948:	2f 92       	push	r2
    194a:	3f 92       	push	r3
    194c:	4f 92       	push	r4
    194e:	5f 92       	push	r5
    1950:	6f 92       	push	r6
    1952:	7f 92       	push	r7
    1954:	8f 92       	push	r8
    1956:	9f 92       	push	r9
    1958:	af 92       	push	r10
    195a:	bf 92       	push	r11
    195c:	cf 92       	push	r12
    195e:	df 92       	push	r13
    1960:	ef 92       	push	r14
    1962:	ff 92       	push	r15
    1964:	0f 93       	push	r16
    1966:	1f 93       	push	r17
    1968:	cf 93       	push	r28
    196a:	df 93       	push	r29
    196c:	cd b7       	in	r28, 0x3d	; 61
    196e:	de b7       	in	r29, 0x3e	; 62
    1970:	ca 1b       	sub	r28, r26
    1972:	db 0b       	sbc	r29, r27
    1974:	0f b6       	in	r0, 0x3f	; 63
    1976:	f8 94       	cli
    1978:	de bf       	out	0x3e, r29	; 62
    197a:	0f be       	out	0x3f, r0	; 63
    197c:	cd bf       	out	0x3d, r28	; 61
    197e:	09 94       	ijmp

00001980 <__epilogue_restores__>:
    1980:	2a 88       	ldd	r2, Y+18	; 0x12
    1982:	39 88       	ldd	r3, Y+17	; 0x11
    1984:	48 88       	ldd	r4, Y+16	; 0x10
    1986:	5f 84       	ldd	r5, Y+15	; 0x0f
    1988:	6e 84       	ldd	r6, Y+14	; 0x0e
    198a:	7d 84       	ldd	r7, Y+13	; 0x0d
    198c:	8c 84       	ldd	r8, Y+12	; 0x0c
    198e:	9b 84       	ldd	r9, Y+11	; 0x0b
    1990:	aa 84       	ldd	r10, Y+10	; 0x0a
    1992:	b9 84       	ldd	r11, Y+9	; 0x09
    1994:	c8 84       	ldd	r12, Y+8	; 0x08
    1996:	df 80       	ldd	r13, Y+7	; 0x07
    1998:	ee 80       	ldd	r14, Y+6	; 0x06
    199a:	fd 80       	ldd	r15, Y+5	; 0x05
    199c:	0c 81       	ldd	r16, Y+4	; 0x04
    199e:	1b 81       	ldd	r17, Y+3	; 0x03
    19a0:	aa 81       	ldd	r26, Y+2	; 0x02
    19a2:	b9 81       	ldd	r27, Y+1	; 0x01
    19a4:	ce 0f       	add	r28, r30
    19a6:	d1 1d       	adc	r29, r1
    19a8:	0f b6       	in	r0, 0x3f	; 63
    19aa:	f8 94       	cli
    19ac:	de bf       	out	0x3e, r29	; 62
    19ae:	0f be       	out	0x3f, r0	; 63
    19b0:	cd bf       	out	0x3d, r28	; 61
    19b2:	ed 01       	movw	r28, r26
    19b4:	08 95       	ret

000019b6 <__ftoa_engine>:
    19b6:	28 30       	cpi	r18, 0x08	; 8
    19b8:	08 f0       	brcs	.+2      	; 0x19bc <__ftoa_engine+0x6>
    19ba:	27 e0       	ldi	r18, 0x07	; 7
    19bc:	33 27       	eor	r19, r19
    19be:	da 01       	movw	r26, r20
    19c0:	99 0f       	add	r25, r25
    19c2:	31 1d       	adc	r19, r1
    19c4:	87 fd       	sbrc	r24, 7
    19c6:	91 60       	ori	r25, 0x01	; 1
    19c8:	00 96       	adiw	r24, 0x00	; 0
    19ca:	61 05       	cpc	r22, r1
    19cc:	71 05       	cpc	r23, r1
    19ce:	39 f4       	brne	.+14     	; 0x19de <__ftoa_engine+0x28>
    19d0:	32 60       	ori	r19, 0x02	; 2
    19d2:	2e 5f       	subi	r18, 0xFE	; 254
    19d4:	3d 93       	st	X+, r19
    19d6:	30 e3       	ldi	r19, 0x30	; 48
    19d8:	2a 95       	dec	r18
    19da:	e1 f7       	brne	.-8      	; 0x19d4 <__ftoa_engine+0x1e>
    19dc:	08 95       	ret
    19de:	9f 3f       	cpi	r25, 0xFF	; 255
    19e0:	30 f0       	brcs	.+12     	; 0x19ee <__ftoa_engine+0x38>
    19e2:	80 38       	cpi	r24, 0x80	; 128
    19e4:	71 05       	cpc	r23, r1
    19e6:	61 05       	cpc	r22, r1
    19e8:	09 f0       	breq	.+2      	; 0x19ec <__ftoa_engine+0x36>
    19ea:	3c 5f       	subi	r19, 0xFC	; 252
    19ec:	3c 5f       	subi	r19, 0xFC	; 252
    19ee:	3d 93       	st	X+, r19
    19f0:	91 30       	cpi	r25, 0x01	; 1
    19f2:	08 f0       	brcs	.+2      	; 0x19f6 <__ftoa_engine+0x40>
    19f4:	80 68       	ori	r24, 0x80	; 128
    19f6:	91 1d       	adc	r25, r1
    19f8:	df 93       	push	r29
    19fa:	cf 93       	push	r28
    19fc:	1f 93       	push	r17
    19fe:	0f 93       	push	r16
    1a00:	ff 92       	push	r15
    1a02:	ef 92       	push	r14
    1a04:	19 2f       	mov	r17, r25
    1a06:	98 7f       	andi	r25, 0xF8	; 248
    1a08:	96 95       	lsr	r25
    1a0a:	e9 2f       	mov	r30, r25
    1a0c:	96 95       	lsr	r25
    1a0e:	96 95       	lsr	r25
    1a10:	e9 0f       	add	r30, r25
    1a12:	ff 27       	eor	r31, r31
    1a14:	e0 5b       	subi	r30, 0xB0	; 176
    1a16:	fe 4f       	sbci	r31, 0xFE	; 254
    1a18:	99 27       	eor	r25, r25
    1a1a:	33 27       	eor	r19, r19
    1a1c:	ee 24       	eor	r14, r14
    1a1e:	ff 24       	eor	r15, r15
    1a20:	a7 01       	movw	r20, r14
    1a22:	e7 01       	movw	r28, r14
    1a24:	05 90       	lpm	r0, Z+
    1a26:	08 94       	sec
    1a28:	07 94       	ror	r0
    1a2a:	28 f4       	brcc	.+10     	; 0x1a36 <__ftoa_engine+0x80>
    1a2c:	36 0f       	add	r19, r22
    1a2e:	e7 1e       	adc	r14, r23
    1a30:	f8 1e       	adc	r15, r24
    1a32:	49 1f       	adc	r20, r25
    1a34:	51 1d       	adc	r21, r1
    1a36:	66 0f       	add	r22, r22
    1a38:	77 1f       	adc	r23, r23
    1a3a:	88 1f       	adc	r24, r24
    1a3c:	99 1f       	adc	r25, r25
    1a3e:	06 94       	lsr	r0
    1a40:	a1 f7       	brne	.-24     	; 0x1a2a <__ftoa_engine+0x74>
    1a42:	05 90       	lpm	r0, Z+
    1a44:	07 94       	ror	r0
    1a46:	28 f4       	brcc	.+10     	; 0x1a52 <__ftoa_engine+0x9c>
    1a48:	e7 0e       	add	r14, r23
    1a4a:	f8 1e       	adc	r15, r24
    1a4c:	49 1f       	adc	r20, r25
    1a4e:	56 1f       	adc	r21, r22
    1a50:	c1 1d       	adc	r28, r1
    1a52:	77 0f       	add	r23, r23
    1a54:	88 1f       	adc	r24, r24
    1a56:	99 1f       	adc	r25, r25
    1a58:	66 1f       	adc	r22, r22
    1a5a:	06 94       	lsr	r0
    1a5c:	a1 f7       	brne	.-24     	; 0x1a46 <__ftoa_engine+0x90>
    1a5e:	05 90       	lpm	r0, Z+
    1a60:	07 94       	ror	r0
    1a62:	28 f4       	brcc	.+10     	; 0x1a6e <__ftoa_engine+0xb8>
    1a64:	f8 0e       	add	r15, r24
    1a66:	49 1f       	adc	r20, r25
    1a68:	56 1f       	adc	r21, r22
    1a6a:	c7 1f       	adc	r28, r23
    1a6c:	d1 1d       	adc	r29, r1
    1a6e:	88 0f       	add	r24, r24
    1a70:	99 1f       	adc	r25, r25
    1a72:	66 1f       	adc	r22, r22
    1a74:	77 1f       	adc	r23, r23
    1a76:	06 94       	lsr	r0
    1a78:	a1 f7       	brne	.-24     	; 0x1a62 <__ftoa_engine+0xac>
    1a7a:	05 90       	lpm	r0, Z+
    1a7c:	07 94       	ror	r0
    1a7e:	20 f4       	brcc	.+8      	; 0x1a88 <__ftoa_engine+0xd2>
    1a80:	49 0f       	add	r20, r25
    1a82:	56 1f       	adc	r21, r22
    1a84:	c7 1f       	adc	r28, r23
    1a86:	d8 1f       	adc	r29, r24
    1a88:	99 0f       	add	r25, r25
    1a8a:	66 1f       	adc	r22, r22
    1a8c:	77 1f       	adc	r23, r23
    1a8e:	88 1f       	adc	r24, r24
    1a90:	06 94       	lsr	r0
    1a92:	a9 f7       	brne	.-22     	; 0x1a7e <__ftoa_engine+0xc8>
    1a94:	84 91       	lpm	r24, Z+
    1a96:	10 95       	com	r17
    1a98:	17 70       	andi	r17, 0x07	; 7
    1a9a:	41 f0       	breq	.+16     	; 0x1aac <__ftoa_engine+0xf6>
    1a9c:	d6 95       	lsr	r29
    1a9e:	c7 95       	ror	r28
    1aa0:	57 95       	ror	r21
    1aa2:	47 95       	ror	r20
    1aa4:	f7 94       	ror	r15
    1aa6:	e7 94       	ror	r14
    1aa8:	1a 95       	dec	r17
    1aaa:	c1 f7       	brne	.-16     	; 0x1a9c <__ftoa_engine+0xe6>
    1aac:	e6 ef       	ldi	r30, 0xF6	; 246
    1aae:	f0 e0       	ldi	r31, 0x00	; 0
    1ab0:	68 94       	set
    1ab2:	15 90       	lpm	r1, Z+
    1ab4:	15 91       	lpm	r17, Z+
    1ab6:	35 91       	lpm	r19, Z+
    1ab8:	65 91       	lpm	r22, Z+
    1aba:	95 91       	lpm	r25, Z+
    1abc:	05 90       	lpm	r0, Z+
    1abe:	7f e2       	ldi	r23, 0x2F	; 47
    1ac0:	73 95       	inc	r23
    1ac2:	e1 18       	sub	r14, r1
    1ac4:	f1 0a       	sbc	r15, r17
    1ac6:	43 0b       	sbc	r20, r19
    1ac8:	56 0b       	sbc	r21, r22
    1aca:	c9 0b       	sbc	r28, r25
    1acc:	d0 09       	sbc	r29, r0
    1ace:	c0 f7       	brcc	.-16     	; 0x1ac0 <__ftoa_engine+0x10a>
    1ad0:	e1 0c       	add	r14, r1
    1ad2:	f1 1e       	adc	r15, r17
    1ad4:	43 1f       	adc	r20, r19
    1ad6:	56 1f       	adc	r21, r22
    1ad8:	c9 1f       	adc	r28, r25
    1ada:	d0 1d       	adc	r29, r0
    1adc:	7e f4       	brtc	.+30     	; 0x1afc <__ftoa_engine+0x146>
    1ade:	70 33       	cpi	r23, 0x30	; 48
    1ae0:	11 f4       	brne	.+4      	; 0x1ae6 <__ftoa_engine+0x130>
    1ae2:	8a 95       	dec	r24
    1ae4:	e6 cf       	rjmp	.-52     	; 0x1ab2 <__ftoa_engine+0xfc>
    1ae6:	e8 94       	clt
    1ae8:	01 50       	subi	r16, 0x01	; 1
    1aea:	30 f0       	brcs	.+12     	; 0x1af8 <__ftoa_engine+0x142>
    1aec:	08 0f       	add	r16, r24
    1aee:	0a f4       	brpl	.+2      	; 0x1af2 <__ftoa_engine+0x13c>
    1af0:	00 27       	eor	r16, r16
    1af2:	02 17       	cp	r16, r18
    1af4:	08 f4       	brcc	.+2      	; 0x1af8 <__ftoa_engine+0x142>
    1af6:	20 2f       	mov	r18, r16
    1af8:	23 95       	inc	r18
    1afa:	02 2f       	mov	r16, r18
    1afc:	7a 33       	cpi	r23, 0x3A	; 58
    1afe:	28 f0       	brcs	.+10     	; 0x1b0a <__ftoa_engine+0x154>
    1b00:	79 e3       	ldi	r23, 0x39	; 57
    1b02:	7d 93       	st	X+, r23
    1b04:	2a 95       	dec	r18
    1b06:	e9 f7       	brne	.-6      	; 0x1b02 <__ftoa_engine+0x14c>
    1b08:	10 c0       	rjmp	.+32     	; 0x1b2a <__ftoa_engine+0x174>
    1b0a:	7d 93       	st	X+, r23
    1b0c:	2a 95       	dec	r18
    1b0e:	89 f6       	brne	.-94     	; 0x1ab2 <__ftoa_engine+0xfc>
    1b10:	06 94       	lsr	r0
    1b12:	97 95       	ror	r25
    1b14:	67 95       	ror	r22
    1b16:	37 95       	ror	r19
    1b18:	17 95       	ror	r17
    1b1a:	17 94       	ror	r1
    1b1c:	e1 18       	sub	r14, r1
    1b1e:	f1 0a       	sbc	r15, r17
    1b20:	43 0b       	sbc	r20, r19
    1b22:	56 0b       	sbc	r21, r22
    1b24:	c9 0b       	sbc	r28, r25
    1b26:	d0 09       	sbc	r29, r0
    1b28:	98 f0       	brcs	.+38     	; 0x1b50 <__ftoa_engine+0x19a>
    1b2a:	23 95       	inc	r18
    1b2c:	7e 91       	ld	r23, -X
    1b2e:	73 95       	inc	r23
    1b30:	7a 33       	cpi	r23, 0x3A	; 58
    1b32:	08 f0       	brcs	.+2      	; 0x1b36 <__ftoa_engine+0x180>
    1b34:	70 e3       	ldi	r23, 0x30	; 48
    1b36:	7c 93       	st	X, r23
    1b38:	20 13       	cpse	r18, r16
    1b3a:	b8 f7       	brcc	.-18     	; 0x1b2a <__ftoa_engine+0x174>
    1b3c:	7e 91       	ld	r23, -X
    1b3e:	70 61       	ori	r23, 0x10	; 16
    1b40:	7d 93       	st	X+, r23
    1b42:	30 f0       	brcs	.+12     	; 0x1b50 <__ftoa_engine+0x19a>
    1b44:	83 95       	inc	r24
    1b46:	71 e3       	ldi	r23, 0x31	; 49
    1b48:	7d 93       	st	X+, r23
    1b4a:	70 e3       	ldi	r23, 0x30	; 48
    1b4c:	2a 95       	dec	r18
    1b4e:	e1 f7       	brne	.-8      	; 0x1b48 <__ftoa_engine+0x192>
    1b50:	11 24       	eor	r1, r1
    1b52:	ef 90       	pop	r14
    1b54:	ff 90       	pop	r15
    1b56:	0f 91       	pop	r16
    1b58:	1f 91       	pop	r17
    1b5a:	cf 91       	pop	r28
    1b5c:	df 91       	pop	r29
    1b5e:	99 27       	eor	r25, r25
    1b60:	87 fd       	sbrc	r24, 7
    1b62:	90 95       	com	r25
    1b64:	08 95       	ret

00001b66 <strnlen_P>:
    1b66:	fc 01       	movw	r30, r24
    1b68:	05 90       	lpm	r0, Z+
    1b6a:	61 50       	subi	r22, 0x01	; 1
    1b6c:	70 40       	sbci	r23, 0x00	; 0
    1b6e:	01 10       	cpse	r0, r1
    1b70:	d8 f7       	brcc	.-10     	; 0x1b68 <strnlen_P+0x2>
    1b72:	80 95       	com	r24
    1b74:	90 95       	com	r25
    1b76:	8e 0f       	add	r24, r30
    1b78:	9f 1f       	adc	r25, r31
    1b7a:	08 95       	ret

00001b7c <strnlen>:
    1b7c:	fc 01       	movw	r30, r24
    1b7e:	61 50       	subi	r22, 0x01	; 1
    1b80:	70 40       	sbci	r23, 0x00	; 0
    1b82:	01 90       	ld	r0, Z+
    1b84:	01 10       	cpse	r0, r1
    1b86:	d8 f7       	brcc	.-10     	; 0x1b7e <strnlen+0x2>
    1b88:	80 95       	com	r24
    1b8a:	90 95       	com	r25
    1b8c:	8e 0f       	add	r24, r30
    1b8e:	9f 1f       	adc	r25, r31
    1b90:	08 95       	ret

00001b92 <fputc>:
    1b92:	0f 93       	push	r16
    1b94:	1f 93       	push	r17
    1b96:	cf 93       	push	r28
    1b98:	df 93       	push	r29
    1b9a:	8c 01       	movw	r16, r24
    1b9c:	eb 01       	movw	r28, r22
    1b9e:	8b 81       	ldd	r24, Y+3	; 0x03
    1ba0:	81 ff       	sbrs	r24, 1
    1ba2:	1b c0       	rjmp	.+54     	; 0x1bda <fputc+0x48>
    1ba4:	82 ff       	sbrs	r24, 2
    1ba6:	0d c0       	rjmp	.+26     	; 0x1bc2 <fputc+0x30>
    1ba8:	2e 81       	ldd	r18, Y+6	; 0x06
    1baa:	3f 81       	ldd	r19, Y+7	; 0x07
    1bac:	8c 81       	ldd	r24, Y+4	; 0x04
    1bae:	9d 81       	ldd	r25, Y+5	; 0x05
    1bb0:	28 17       	cp	r18, r24
    1bb2:	39 07       	cpc	r19, r25
    1bb4:	64 f4       	brge	.+24     	; 0x1bce <fputc+0x3c>
    1bb6:	e8 81       	ld	r30, Y
    1bb8:	f9 81       	ldd	r31, Y+1	; 0x01
    1bba:	01 93       	st	Z+, r16
    1bbc:	f9 83       	std	Y+1, r31	; 0x01
    1bbe:	e8 83       	st	Y, r30
    1bc0:	06 c0       	rjmp	.+12     	; 0x1bce <fputc+0x3c>
    1bc2:	e8 85       	ldd	r30, Y+8	; 0x08
    1bc4:	f9 85       	ldd	r31, Y+9	; 0x09
    1bc6:	80 2f       	mov	r24, r16
    1bc8:	09 95       	icall
    1bca:	89 2b       	or	r24, r25
    1bcc:	31 f4       	brne	.+12     	; 0x1bda <fputc+0x48>
    1bce:	8e 81       	ldd	r24, Y+6	; 0x06
    1bd0:	9f 81       	ldd	r25, Y+7	; 0x07
    1bd2:	01 96       	adiw	r24, 0x01	; 1
    1bd4:	9f 83       	std	Y+7, r25	; 0x07
    1bd6:	8e 83       	std	Y+6, r24	; 0x06
    1bd8:	02 c0       	rjmp	.+4      	; 0x1bde <fputc+0x4c>
    1bda:	0f ef       	ldi	r16, 0xFF	; 255
    1bdc:	1f ef       	ldi	r17, 0xFF	; 255
    1bde:	c8 01       	movw	r24, r16
    1be0:	df 91       	pop	r29
    1be2:	cf 91       	pop	r28
    1be4:	1f 91       	pop	r17
    1be6:	0f 91       	pop	r16
    1be8:	08 95       	ret

00001bea <printf>:
    1bea:	a0 e0       	ldi	r26, 0x00	; 0
    1bec:	b0 e0       	ldi	r27, 0x00	; 0
    1bee:	eb ef       	ldi	r30, 0xFB	; 251
    1bf0:	fd e0       	ldi	r31, 0x0D	; 13
    1bf2:	0c 94 b4 0c 	jmp	0x1968	; 0x1968 <__prologue_saves__+0x20>
    1bf6:	fe 01       	movw	r30, r28
    1bf8:	35 96       	adiw	r30, 0x05	; 5
    1bfa:	61 91       	ld	r22, Z+
    1bfc:	71 91       	ld	r23, Z+
    1bfe:	80 91 45 03 	lds	r24, 0x0345
    1c02:	90 91 46 03 	lds	r25, 0x0346
    1c06:	af 01       	movw	r20, r30
    1c08:	0e 94 f6 08 	call	0x11ec	; 0x11ec <vfprintf>
    1c0c:	20 96       	adiw	r28, 0x00	; 0
    1c0e:	e2 e0       	ldi	r30, 0x02	; 2
    1c10:	0c 94 d0 0c 	jmp	0x19a0	; 0x19a0 <__epilogue_restores__+0x20>

00001c14 <putchar>:
    1c14:	60 91 45 03 	lds	r22, 0x0345
    1c18:	70 91 46 03 	lds	r23, 0x0346
    1c1c:	0e 94 c9 0d 	call	0x1b92	; 0x1b92 <fputc>
    1c20:	08 95       	ret

00001c22 <puts>:
    1c22:	0f 93       	push	r16
    1c24:	1f 93       	push	r17
    1c26:	cf 93       	push	r28
    1c28:	df 93       	push	r29
    1c2a:	8c 01       	movw	r16, r24
    1c2c:	e0 91 45 03 	lds	r30, 0x0345
    1c30:	f0 91 46 03 	lds	r31, 0x0346
    1c34:	83 81       	ldd	r24, Z+3	; 0x03
    1c36:	81 ff       	sbrs	r24, 1
    1c38:	21 c0       	rjmp	.+66     	; 0x1c7c <puts+0x5a>
    1c3a:	c0 e0       	ldi	r28, 0x00	; 0
    1c3c:	d0 e0       	ldi	r29, 0x00	; 0
    1c3e:	0d c0       	rjmp	.+26     	; 0x1c5a <puts+0x38>
    1c40:	e0 91 45 03 	lds	r30, 0x0345
    1c44:	f0 91 46 03 	lds	r31, 0x0346
    1c48:	20 85       	ldd	r18, Z+8	; 0x08
    1c4a:	31 85       	ldd	r19, Z+9	; 0x09
    1c4c:	bf 01       	movw	r22, r30
    1c4e:	f9 01       	movw	r30, r18
    1c50:	09 95       	icall
    1c52:	89 2b       	or	r24, r25
    1c54:	11 f0       	breq	.+4      	; 0x1c5a <puts+0x38>
    1c56:	cf ef       	ldi	r28, 0xFF	; 255
    1c58:	df ef       	ldi	r29, 0xFF	; 255
    1c5a:	f8 01       	movw	r30, r16
    1c5c:	81 91       	ld	r24, Z+
    1c5e:	8f 01       	movw	r16, r30
    1c60:	88 23       	and	r24, r24
    1c62:	71 f7       	brne	.-36     	; 0x1c40 <puts+0x1e>
    1c64:	e0 91 45 03 	lds	r30, 0x0345
    1c68:	f0 91 46 03 	lds	r31, 0x0346
    1c6c:	20 85       	ldd	r18, Z+8	; 0x08
    1c6e:	31 85       	ldd	r19, Z+9	; 0x09
    1c70:	8a e0       	ldi	r24, 0x0A	; 10
    1c72:	bf 01       	movw	r22, r30
    1c74:	f9 01       	movw	r30, r18
    1c76:	09 95       	icall
    1c78:	89 2b       	or	r24, r25
    1c7a:	11 f0       	breq	.+4      	; 0x1c80 <puts+0x5e>
    1c7c:	cf ef       	ldi	r28, 0xFF	; 255
    1c7e:	df ef       	ldi	r29, 0xFF	; 255
    1c80:	ce 01       	movw	r24, r28
    1c82:	df 91       	pop	r29
    1c84:	cf 91       	pop	r28
    1c86:	1f 91       	pop	r17
    1c88:	0f 91       	pop	r16
    1c8a:	08 95       	ret

00001c8c <scanf>:
    1c8c:	a0 e0       	ldi	r26, 0x00	; 0
    1c8e:	b0 e0       	ldi	r27, 0x00	; 0
    1c90:	ec e4       	ldi	r30, 0x4C	; 76
    1c92:	fe e0       	ldi	r31, 0x0E	; 14
    1c94:	0c 94 b4 0c 	jmp	0x1968	; 0x1968 <__prologue_saves__+0x20>
    1c98:	fe 01       	movw	r30, r28
    1c9a:	35 96       	adiw	r30, 0x05	; 5
    1c9c:	61 91       	ld	r22, Z+
    1c9e:	71 91       	ld	r23, Z+
    1ca0:	80 91 43 03 	lds	r24, 0x0343
    1ca4:	90 91 44 03 	lds	r25, 0x0344
    1ca8:	af 01       	movw	r20, r30
    1caa:	0e 94 3d 10 	call	0x207a	; 0x207a <vfscanf>
    1cae:	20 96       	adiw	r28, 0x00	; 0
    1cb0:	e2 e0       	ldi	r30, 0x02	; 2
    1cb2:	0c 94 d0 0c 	jmp	0x19a0	; 0x19a0 <__epilogue_restores__+0x20>

00001cb6 <__ultoa_invert>:
    1cb6:	fa 01       	movw	r30, r20
    1cb8:	aa 27       	eor	r26, r26
    1cba:	28 30       	cpi	r18, 0x08	; 8
    1cbc:	51 f1       	breq	.+84     	; 0x1d12 <__ultoa_invert+0x5c>
    1cbe:	20 31       	cpi	r18, 0x10	; 16
    1cc0:	81 f1       	breq	.+96     	; 0x1d22 <__ultoa_invert+0x6c>
    1cc2:	e8 94       	clt
    1cc4:	6f 93       	push	r22
    1cc6:	6e 7f       	andi	r22, 0xFE	; 254
    1cc8:	6e 5f       	subi	r22, 0xFE	; 254
    1cca:	7f 4f       	sbci	r23, 0xFF	; 255
    1ccc:	8f 4f       	sbci	r24, 0xFF	; 255
    1cce:	9f 4f       	sbci	r25, 0xFF	; 255
    1cd0:	af 4f       	sbci	r26, 0xFF	; 255
    1cd2:	b1 e0       	ldi	r27, 0x01	; 1
    1cd4:	3e d0       	rcall	.+124    	; 0x1d52 <__ultoa_invert+0x9c>
    1cd6:	b4 e0       	ldi	r27, 0x04	; 4
    1cd8:	3c d0       	rcall	.+120    	; 0x1d52 <__ultoa_invert+0x9c>
    1cda:	67 0f       	add	r22, r23
    1cdc:	78 1f       	adc	r23, r24
    1cde:	89 1f       	adc	r24, r25
    1ce0:	9a 1f       	adc	r25, r26
    1ce2:	a1 1d       	adc	r26, r1
    1ce4:	68 0f       	add	r22, r24
    1ce6:	79 1f       	adc	r23, r25
    1ce8:	8a 1f       	adc	r24, r26
    1cea:	91 1d       	adc	r25, r1
    1cec:	a1 1d       	adc	r26, r1
    1cee:	6a 0f       	add	r22, r26
    1cf0:	71 1d       	adc	r23, r1
    1cf2:	81 1d       	adc	r24, r1
    1cf4:	91 1d       	adc	r25, r1
    1cf6:	a1 1d       	adc	r26, r1
    1cf8:	20 d0       	rcall	.+64     	; 0x1d3a <__ultoa_invert+0x84>
    1cfa:	09 f4       	brne	.+2      	; 0x1cfe <__ultoa_invert+0x48>
    1cfc:	68 94       	set
    1cfe:	3f 91       	pop	r19
    1d00:	2a e0       	ldi	r18, 0x0A	; 10
    1d02:	26 9f       	mul	r18, r22
    1d04:	11 24       	eor	r1, r1
    1d06:	30 19       	sub	r19, r0
    1d08:	30 5d       	subi	r19, 0xD0	; 208
    1d0a:	31 93       	st	Z+, r19
    1d0c:	de f6       	brtc	.-74     	; 0x1cc4 <__ultoa_invert+0xe>
    1d0e:	cf 01       	movw	r24, r30
    1d10:	08 95       	ret
    1d12:	46 2f       	mov	r20, r22
    1d14:	47 70       	andi	r20, 0x07	; 7
    1d16:	40 5d       	subi	r20, 0xD0	; 208
    1d18:	41 93       	st	Z+, r20
    1d1a:	b3 e0       	ldi	r27, 0x03	; 3
    1d1c:	0f d0       	rcall	.+30     	; 0x1d3c <__ultoa_invert+0x86>
    1d1e:	c9 f7       	brne	.-14     	; 0x1d12 <__ultoa_invert+0x5c>
    1d20:	f6 cf       	rjmp	.-20     	; 0x1d0e <__ultoa_invert+0x58>
    1d22:	46 2f       	mov	r20, r22
    1d24:	4f 70       	andi	r20, 0x0F	; 15
    1d26:	40 5d       	subi	r20, 0xD0	; 208
    1d28:	4a 33       	cpi	r20, 0x3A	; 58
    1d2a:	18 f0       	brcs	.+6      	; 0x1d32 <__ultoa_invert+0x7c>
    1d2c:	49 5d       	subi	r20, 0xD9	; 217
    1d2e:	31 fd       	sbrc	r19, 1
    1d30:	40 52       	subi	r20, 0x20	; 32
    1d32:	41 93       	st	Z+, r20
    1d34:	02 d0       	rcall	.+4      	; 0x1d3a <__ultoa_invert+0x84>
    1d36:	a9 f7       	brne	.-22     	; 0x1d22 <__ultoa_invert+0x6c>
    1d38:	ea cf       	rjmp	.-44     	; 0x1d0e <__ultoa_invert+0x58>
    1d3a:	b4 e0       	ldi	r27, 0x04	; 4
    1d3c:	a6 95       	lsr	r26
    1d3e:	97 95       	ror	r25
    1d40:	87 95       	ror	r24
    1d42:	77 95       	ror	r23
    1d44:	67 95       	ror	r22
    1d46:	ba 95       	dec	r27
    1d48:	c9 f7       	brne	.-14     	; 0x1d3c <__ultoa_invert+0x86>
    1d4a:	00 97       	sbiw	r24, 0x00	; 0
    1d4c:	61 05       	cpc	r22, r1
    1d4e:	71 05       	cpc	r23, r1
    1d50:	08 95       	ret
    1d52:	9b 01       	movw	r18, r22
    1d54:	ac 01       	movw	r20, r24
    1d56:	0a 2e       	mov	r0, r26
    1d58:	06 94       	lsr	r0
    1d5a:	57 95       	ror	r21
    1d5c:	47 95       	ror	r20
    1d5e:	37 95       	ror	r19
    1d60:	27 95       	ror	r18
    1d62:	ba 95       	dec	r27
    1d64:	c9 f7       	brne	.-14     	; 0x1d58 <__ultoa_invert+0xa2>
    1d66:	62 0f       	add	r22, r18
    1d68:	73 1f       	adc	r23, r19
    1d6a:	84 1f       	adc	r24, r20
    1d6c:	95 1f       	adc	r25, r21
    1d6e:	a0 1d       	adc	r26, r0
    1d70:	08 95       	ret

00001d72 <putval>:
    1d72:	fc 01       	movw	r30, r24
    1d74:	20 fd       	sbrc	r18, 0
    1d76:	08 c0       	rjmp	.+16     	; 0x1d88 <putval+0x16>
    1d78:	23 fd       	sbrc	r18, 3
    1d7a:	05 c0       	rjmp	.+10     	; 0x1d86 <putval+0x14>
    1d7c:	22 ff       	sbrs	r18, 2
    1d7e:	02 c0       	rjmp	.+4      	; 0x1d84 <putval+0x12>
    1d80:	73 83       	std	Z+3, r23	; 0x03
    1d82:	62 83       	std	Z+2, r22	; 0x02
    1d84:	51 83       	std	Z+1, r21	; 0x01
    1d86:	40 83       	st	Z, r20
    1d88:	08 95       	ret

00001d8a <mulacc>:
    1d8a:	ef 92       	push	r14
    1d8c:	ff 92       	push	r15
    1d8e:	0f 93       	push	r16
    1d90:	1f 93       	push	r17
    1d92:	44 ff       	sbrs	r20, 4
    1d94:	02 c0       	rjmp	.+4      	; 0x1d9a <mulacc+0x10>
    1d96:	33 e0       	ldi	r19, 0x03	; 3
    1d98:	11 c0       	rjmp	.+34     	; 0x1dbc <mulacc+0x32>
    1d9a:	46 ff       	sbrs	r20, 6
    1d9c:	02 c0       	rjmp	.+4      	; 0x1da2 <mulacc+0x18>
    1d9e:	34 e0       	ldi	r19, 0x04	; 4
    1da0:	0d c0       	rjmp	.+26     	; 0x1dbc <mulacc+0x32>
    1da2:	db 01       	movw	r26, r22
    1da4:	fc 01       	movw	r30, r24
    1da6:	aa 0f       	add	r26, r26
    1da8:	bb 1f       	adc	r27, r27
    1daa:	ee 1f       	adc	r30, r30
    1dac:	ff 1f       	adc	r31, r31
    1dae:	10 94       	com	r1
    1db0:	d1 f7       	brne	.-12     	; 0x1da6 <mulacc+0x1c>
    1db2:	6a 0f       	add	r22, r26
    1db4:	7b 1f       	adc	r23, r27
    1db6:	8e 1f       	adc	r24, r30
    1db8:	9f 1f       	adc	r25, r31
    1dba:	31 e0       	ldi	r19, 0x01	; 1
    1dbc:	66 0f       	add	r22, r22
    1dbe:	77 1f       	adc	r23, r23
    1dc0:	88 1f       	adc	r24, r24
    1dc2:	99 1f       	adc	r25, r25
    1dc4:	31 50       	subi	r19, 0x01	; 1
    1dc6:	d1 f7       	brne	.-12     	; 0x1dbc <mulacc+0x32>
    1dc8:	7b 01       	movw	r14, r22
    1dca:	8c 01       	movw	r16, r24
    1dcc:	e2 0e       	add	r14, r18
    1dce:	f1 1c       	adc	r15, r1
    1dd0:	01 1d       	adc	r16, r1
    1dd2:	11 1d       	adc	r17, r1
    1dd4:	a8 01       	movw	r20, r16
    1dd6:	97 01       	movw	r18, r14
    1dd8:	b7 01       	movw	r22, r14
    1dda:	ca 01       	movw	r24, r20
    1ddc:	1f 91       	pop	r17
    1dde:	0f 91       	pop	r16
    1de0:	ff 90       	pop	r15
    1de2:	ef 90       	pop	r14
    1de4:	08 95       	ret

00001de6 <skip_spaces>:
    1de6:	0f 93       	push	r16
    1de8:	1f 93       	push	r17
    1dea:	cf 93       	push	r28
    1dec:	df 93       	push	r29
    1dee:	8c 01       	movw	r16, r24
    1df0:	c8 01       	movw	r24, r16
    1df2:	0e 94 61 11 	call	0x22c2	; 0x22c2 <fgetc>
    1df6:	ec 01       	movw	r28, r24
    1df8:	97 fd       	sbrc	r25, 7
    1dfa:	08 c0       	rjmp	.+16     	; 0x1e0c <skip_spaces+0x26>
    1dfc:	0e 94 4e 11 	call	0x229c	; 0x229c <isspace>
    1e00:	89 2b       	or	r24, r25
    1e02:	b1 f7       	brne	.-20     	; 0x1df0 <skip_spaces+0xa>
    1e04:	ce 01       	movw	r24, r28
    1e06:	b8 01       	movw	r22, r16
    1e08:	0e 94 a3 11 	call	0x2346	; 0x2346 <ungetc>
    1e0c:	ce 01       	movw	r24, r28
    1e0e:	df 91       	pop	r29
    1e10:	cf 91       	pop	r28
    1e12:	1f 91       	pop	r17
    1e14:	0f 91       	pop	r16
    1e16:	08 95       	ret

00001e18 <conv_int>:
    1e18:	a0 e0       	ldi	r26, 0x00	; 0
    1e1a:	b0 e0       	ldi	r27, 0x00	; 0
    1e1c:	e2 e1       	ldi	r30, 0x12	; 18
    1e1e:	ff e0       	ldi	r31, 0x0F	; 15
    1e20:	0c 94 ac 0c 	jmp	0x1958	; 0x1958 <__prologue_saves__+0x10>
    1e24:	ec 01       	movw	r28, r24
    1e26:	c6 2e       	mov	r12, r22
    1e28:	5a 01       	movw	r10, r20
    1e2a:	12 2f       	mov	r17, r18
    1e2c:	0e 94 61 11 	call	0x22c2	; 0x22c2 <fgetc>
    1e30:	ac 01       	movw	r20, r24
    1e32:	8b 32       	cpi	r24, 0x2B	; 43
    1e34:	19 f0       	breq	.+6      	; 0x1e3c <conv_int+0x24>
    1e36:	8d 32       	cpi	r24, 0x2D	; 45
    1e38:	51 f4       	brne	.+20     	; 0x1e4e <conv_int+0x36>
    1e3a:	10 68       	ori	r17, 0x80	; 128
    1e3c:	ca 94       	dec	r12
    1e3e:	09 f4       	brne	.+2      	; 0x1e42 <conv_int+0x2a>
    1e40:	6d c0       	rjmp	.+218    	; 0x1f1c <conv_int+0x104>
    1e42:	ce 01       	movw	r24, r28
    1e44:	0e 94 61 11 	call	0x22c2	; 0x22c2 <fgetc>
    1e48:	ac 01       	movw	r20, r24
    1e4a:	97 fd       	sbrc	r25, 7
    1e4c:	67 c0       	rjmp	.+206    	; 0x1f1c <conv_int+0x104>
    1e4e:	6d ef       	ldi	r22, 0xFD	; 253
    1e50:	d6 2e       	mov	r13, r22
    1e52:	d1 22       	and	r13, r17
    1e54:	8d 2d       	mov	r24, r13
    1e56:	80 73       	andi	r24, 0x30	; 48
    1e58:	01 f5       	brne	.+64     	; 0x1e9a <conv_int+0x82>
    1e5a:	40 33       	cpi	r20, 0x30	; 48
    1e5c:	f1 f4       	brne	.+60     	; 0x1e9a <conv_int+0x82>
    1e5e:	ca 94       	dec	r12
    1e60:	09 f4       	brne	.+2      	; 0x1e64 <conv_int+0x4c>
    1e62:	47 c0       	rjmp	.+142    	; 0x1ef2 <conv_int+0xda>
    1e64:	ce 01       	movw	r24, r28
    1e66:	0e 94 61 11 	call	0x22c2	; 0x22c2 <fgetc>
    1e6a:	ac 01       	movw	r20, r24
    1e6c:	97 fd       	sbrc	r25, 7
    1e6e:	41 c0       	rjmp	.+130    	; 0x1ef2 <conv_int+0xda>
    1e70:	82 e0       	ldi	r24, 0x02	; 2
    1e72:	d8 2a       	or	r13, r24
    1e74:	48 37       	cpi	r20, 0x78	; 120
    1e76:	11 f0       	breq	.+4      	; 0x1e7c <conv_int+0x64>
    1e78:	48 35       	cpi	r20, 0x58	; 88
    1e7a:	59 f4       	brne	.+22     	; 0x1e92 <conv_int+0x7a>
    1e7c:	80 e4       	ldi	r24, 0x40	; 64
    1e7e:	d8 2a       	or	r13, r24
    1e80:	ca 94       	dec	r12
    1e82:	b9 f1       	breq	.+110    	; 0x1ef2 <conv_int+0xda>
    1e84:	ce 01       	movw	r24, r28
    1e86:	0e 94 61 11 	call	0x22c2	; 0x22c2 <fgetc>
    1e8a:	ac 01       	movw	r20, r24
    1e8c:	99 23       	and	r25, r25
    1e8e:	2c f4       	brge	.+10     	; 0x1e9a <conv_int+0x82>
    1e90:	30 c0       	rjmp	.+96     	; 0x1ef2 <conv_int+0xda>
    1e92:	d6 fc       	sbrc	r13, 6
    1e94:	02 c0       	rjmp	.+4      	; 0x1e9a <conv_int+0x82>
    1e96:	80 e1       	ldi	r24, 0x10	; 16
    1e98:	d8 2a       	or	r13, r24
    1e9a:	ee 24       	eor	r14, r14
    1e9c:	ff 24       	eor	r15, r15
    1e9e:	87 01       	movw	r16, r14
    1ea0:	24 2f       	mov	r18, r20
    1ea2:	20 53       	subi	r18, 0x30	; 48
    1ea4:	28 30       	cpi	r18, 0x08	; 8
    1ea6:	88 f0       	brcs	.+34     	; 0x1eca <conv_int+0xb2>
    1ea8:	d4 fc       	sbrc	r13, 4
    1eaa:	09 c0       	rjmp	.+18     	; 0x1ebe <conv_int+0xa6>
    1eac:	2a 30       	cpi	r18, 0x0A	; 10
    1eae:	68 f0       	brcs	.+26     	; 0x1eca <conv_int+0xb2>
    1eb0:	d6 fe       	sbrs	r13, 6
    1eb2:	05 c0       	rjmp	.+10     	; 0x1ebe <conv_int+0xa6>
    1eb4:	2f 7d       	andi	r18, 0xDF	; 223
    1eb6:	82 2f       	mov	r24, r18
    1eb8:	81 51       	subi	r24, 0x11	; 17
    1eba:	86 30       	cpi	r24, 0x06	; 6
    1ebc:	28 f0       	brcs	.+10     	; 0x1ec8 <conv_int+0xb0>
    1ebe:	ca 01       	movw	r24, r20
    1ec0:	be 01       	movw	r22, r28
    1ec2:	0e 94 a3 11 	call	0x2346	; 0x2346 <ungetc>
    1ec6:	12 c0       	rjmp	.+36     	; 0x1eec <conv_int+0xd4>
    1ec8:	27 50       	subi	r18, 0x07	; 7
    1eca:	c8 01       	movw	r24, r16
    1ecc:	b7 01       	movw	r22, r14
    1ece:	4d 2d       	mov	r20, r13
    1ed0:	0e 94 c5 0e 	call	0x1d8a	; 0x1d8a <mulacc>
    1ed4:	7b 01       	movw	r14, r22
    1ed6:	8c 01       	movw	r16, r24
    1ed8:	82 e0       	ldi	r24, 0x02	; 2
    1eda:	d8 2a       	or	r13, r24
    1edc:	ca 94       	dec	r12
    1ede:	61 f0       	breq	.+24     	; 0x1ef8 <conv_int+0xe0>
    1ee0:	ce 01       	movw	r24, r28
    1ee2:	0e 94 61 11 	call	0x22c2	; 0x22c2 <fgetc>
    1ee6:	ac 01       	movw	r20, r24
    1ee8:	97 ff       	sbrs	r25, 7
    1eea:	da cf       	rjmp	.-76     	; 0x1ea0 <conv_int+0x88>
    1eec:	d1 fc       	sbrc	r13, 1
    1eee:	04 c0       	rjmp	.+8      	; 0x1ef8 <conv_int+0xe0>
    1ef0:	15 c0       	rjmp	.+42     	; 0x1f1c <conv_int+0x104>
    1ef2:	ee 24       	eor	r14, r14
    1ef4:	ff 24       	eor	r15, r15
    1ef6:	87 01       	movw	r16, r14
    1ef8:	d7 fe       	sbrs	r13, 7
    1efa:	08 c0       	rjmp	.+16     	; 0x1f0c <conv_int+0xf4>
    1efc:	10 95       	com	r17
    1efe:	00 95       	com	r16
    1f00:	f0 94       	com	r15
    1f02:	e0 94       	com	r14
    1f04:	e1 1c       	adc	r14, r1
    1f06:	f1 1c       	adc	r15, r1
    1f08:	01 1d       	adc	r16, r1
    1f0a:	11 1d       	adc	r17, r1
    1f0c:	c5 01       	movw	r24, r10
    1f0e:	b8 01       	movw	r22, r16
    1f10:	a7 01       	movw	r20, r14
    1f12:	2d 2d       	mov	r18, r13
    1f14:	0e 94 b9 0e 	call	0x1d72	; 0x1d72 <putval>
    1f18:	81 e0       	ldi	r24, 0x01	; 1
    1f1a:	01 c0       	rjmp	.+2      	; 0x1f1e <conv_int+0x106>
    1f1c:	80 e0       	ldi	r24, 0x00	; 0
    1f1e:	cd b7       	in	r28, 0x3d	; 61
    1f20:	de b7       	in	r29, 0x3e	; 62
    1f22:	ea e0       	ldi	r30, 0x0A	; 10
    1f24:	0c 94 c8 0c 	jmp	0x1990	; 0x1990 <__epilogue_restores__+0x10>

00001f28 <conv_brk>:
    1f28:	a0 e2       	ldi	r26, 0x20	; 32
    1f2a:	b0 e0       	ldi	r27, 0x00	; 0
    1f2c:	ea e9       	ldi	r30, 0x9A	; 154
    1f2e:	ff e0       	ldi	r31, 0x0F	; 15
    1f30:	0c 94 a8 0c 	jmp	0x1950	; 0x1950 <__prologue_saves__+0x8>
    1f34:	6c 01       	movw	r12, r24
    1f36:	a6 2e       	mov	r10, r22
    1f38:	8a 01       	movw	r16, r20
    1f3a:	79 01       	movw	r14, r18
    1f3c:	fe 01       	movw	r30, r28
    1f3e:	31 96       	adiw	r30, 0x01	; 1
    1f40:	80 e2       	ldi	r24, 0x20	; 32
    1f42:	df 01       	movw	r26, r30
    1f44:	1d 92       	st	X+, r1
    1f46:	8a 95       	dec	r24
    1f48:	e9 f7       	brne	.-6      	; 0x1f44 <conv_brk+0x1c>
    1f4a:	70 e0       	ldi	r23, 0x00	; 0
    1f4c:	30 e0       	ldi	r19, 0x00	; 0
    1f4e:	60 e0       	ldi	r22, 0x00	; 0
    1f50:	40 e0       	ldi	r20, 0x00	; 0
    1f52:	50 e0       	ldi	r21, 0x00	; 0
    1f54:	4f 01       	movw	r8, r30
    1f56:	a1 e0       	ldi	r26, 0x01	; 1
    1f58:	b0 e0       	ldi	r27, 0x00	; 0
    1f5a:	f6 01       	movw	r30, r12
    1f5c:	83 81       	ldd	r24, Z+3	; 0x03
    1f5e:	f7 01       	movw	r30, r14
    1f60:	83 fd       	sbrc	r24, 3
    1f62:	25 91       	lpm	r18, Z+
    1f64:	83 ff       	sbrs	r24, 3
    1f66:	21 91       	ld	r18, Z+
    1f68:	7f 01       	movw	r14, r30
    1f6a:	22 23       	and	r18, r18
    1f6c:	09 f4       	brne	.+2      	; 0x1f70 <conv_brk+0x48>
    1f6e:	7e c0       	rjmp	.+252    	; 0x206c <conv_brk+0x144>
    1f70:	2e 35       	cpi	r18, 0x5E	; 94
    1f72:	19 f4       	brne	.+6      	; 0x1f7a <conv_brk+0x52>
    1f74:	41 15       	cp	r20, r1
    1f76:	51 05       	cpc	r21, r1
    1f78:	69 f1       	breq	.+90     	; 0x1fd4 <conv_brk+0xac>
    1f7a:	87 2f       	mov	r24, r23
    1f7c:	90 e0       	ldi	r25, 0x00	; 0
    1f7e:	84 17       	cp	r24, r20
    1f80:	95 07       	cpc	r25, r21
    1f82:	44 f4       	brge	.+16     	; 0x1f94 <conv_brk+0x6c>
    1f84:	2d 35       	cpi	r18, 0x5D	; 93
    1f86:	51 f1       	breq	.+84     	; 0x1fdc <conv_brk+0xb4>
    1f88:	2d 32       	cpi	r18, 0x2D	; 45
    1f8a:	21 f4       	brne	.+8      	; 0x1f94 <conv_brk+0x6c>
    1f8c:	33 23       	and	r19, r19
    1f8e:	29 f4       	brne	.+10     	; 0x1f9a <conv_brk+0x72>
    1f90:	31 e0       	ldi	r19, 0x01	; 1
    1f92:	21 c0       	rjmp	.+66     	; 0x1fd6 <conv_brk+0xae>
    1f94:	33 23       	and	r19, r19
    1f96:	09 f4       	brne	.+2      	; 0x1f9a <conv_brk+0x72>
    1f98:	62 2f       	mov	r22, r18
    1f9a:	32 2f       	mov	r19, r18
    1f9c:	83 2f       	mov	r24, r19
    1f9e:	86 95       	lsr	r24
    1fa0:	86 95       	lsr	r24
    1fa2:	86 95       	lsr	r24
    1fa4:	f4 01       	movw	r30, r8
    1fa6:	e8 0f       	add	r30, r24
    1fa8:	f1 1d       	adc	r31, r1
    1faa:	83 2f       	mov	r24, r19
    1fac:	87 70       	andi	r24, 0x07	; 7
    1fae:	3d 01       	movw	r6, r26
    1fb0:	02 c0       	rjmp	.+4      	; 0x1fb6 <conv_brk+0x8e>
    1fb2:	66 0c       	add	r6, r6
    1fb4:	77 1c       	adc	r7, r7
    1fb6:	8a 95       	dec	r24
    1fb8:	e2 f7       	brpl	.-8      	; 0x1fb2 <conv_brk+0x8a>
    1fba:	20 81       	ld	r18, Z
    1fbc:	26 29       	or	r18, r6
    1fbe:	20 83       	st	Z, r18
    1fc0:	36 17       	cp	r19, r22
    1fc2:	11 f4       	brne	.+4      	; 0x1fc8 <conv_brk+0xa0>
    1fc4:	30 e0       	ldi	r19, 0x00	; 0
    1fc6:	07 c0       	rjmp	.+14     	; 0x1fd6 <conv_brk+0xae>
    1fc8:	36 17       	cp	r19, r22
    1fca:	10 f4       	brcc	.+4      	; 0x1fd0 <conv_brk+0xa8>
    1fcc:	3f 5f       	subi	r19, 0xFF	; 255
    1fce:	e6 cf       	rjmp	.-52     	; 0x1f9c <conv_brk+0x74>
    1fd0:	31 50       	subi	r19, 0x01	; 1
    1fd2:	e4 cf       	rjmp	.-56     	; 0x1f9c <conv_brk+0x74>
    1fd4:	71 e0       	ldi	r23, 0x01	; 1
    1fd6:	4f 5f       	subi	r20, 0xFF	; 255
    1fd8:	5f 4f       	sbci	r21, 0xFF	; 255
    1fda:	bf cf       	rjmp	.-130    	; 0x1f5a <conv_brk+0x32>
    1fdc:	33 23       	and	r19, r19
    1fde:	19 f0       	breq	.+6      	; 0x1fe6 <conv_brk+0xbe>
    1fe0:	8e 81       	ldd	r24, Y+6	; 0x06
    1fe2:	80 62       	ori	r24, 0x20	; 32
    1fe4:	8e 83       	std	Y+6, r24	; 0x06
    1fe6:	77 23       	and	r23, r23
    1fe8:	59 f0       	breq	.+22     	; 0x2000 <conv_brk+0xd8>
    1fea:	fe 01       	movw	r30, r28
    1fec:	31 96       	adiw	r30, 0x01	; 1
    1fee:	9e 01       	movw	r18, r28
    1ff0:	2f 5d       	subi	r18, 0xDF	; 223
    1ff2:	3f 4f       	sbci	r19, 0xFF	; 255
    1ff4:	80 81       	ld	r24, Z
    1ff6:	80 95       	com	r24
    1ff8:	81 93       	st	Z+, r24
    1ffa:	e2 17       	cp	r30, r18
    1ffc:	f3 07       	cpc	r31, r19
    1ffe:	d1 f7       	brne	.-12     	; 0x1ff4 <conv_brk+0xcc>
    2000:	bb 24       	eor	r11, r11
    2002:	b3 94       	inc	r11
    2004:	4e 01       	movw	r8, r28
    2006:	08 94       	sec
    2008:	81 1c       	adc	r8, r1
    200a:	91 1c       	adc	r9, r1
    200c:	c6 01       	movw	r24, r12
    200e:	0e 94 61 11 	call	0x22c2	; 0x22c2 <fgetc>
    2012:	ac 01       	movw	r20, r24
    2014:	97 fd       	sbrc	r25, 7
    2016:	22 c0       	rjmp	.+68     	; 0x205c <conv_brk+0x134>
    2018:	86 95       	lsr	r24
    201a:	86 95       	lsr	r24
    201c:	86 95       	lsr	r24
    201e:	f4 01       	movw	r30, r8
    2020:	e8 0f       	add	r30, r24
    2022:	f1 1d       	adc	r31, r1
    2024:	80 81       	ld	r24, Z
    2026:	90 e0       	ldi	r25, 0x00	; 0
    2028:	9a 01       	movw	r18, r20
    202a:	27 70       	andi	r18, 0x07	; 7
    202c:	30 70       	andi	r19, 0x00	; 0
    202e:	02 c0       	rjmp	.+4      	; 0x2034 <conv_brk+0x10c>
    2030:	95 95       	asr	r25
    2032:	87 95       	ror	r24
    2034:	2a 95       	dec	r18
    2036:	e2 f7       	brpl	.-8      	; 0x2030 <conv_brk+0x108>
    2038:	80 fd       	sbrc	r24, 0
    203a:	05 c0       	rjmp	.+10     	; 0x2046 <conv_brk+0x11e>
    203c:	ca 01       	movw	r24, r20
    203e:	b6 01       	movw	r22, r12
    2040:	0e 94 a3 11 	call	0x2346	; 0x2346 <ungetc>
    2044:	0b c0       	rjmp	.+22     	; 0x205c <conv_brk+0x134>
    2046:	01 15       	cp	r16, r1
    2048:	11 05       	cpc	r17, r1
    204a:	19 f0       	breq	.+6      	; 0x2052 <conv_brk+0x12a>
    204c:	d8 01       	movw	r26, r16
    204e:	4d 93       	st	X+, r20
    2050:	8d 01       	movw	r16, r26
    2052:	aa 94       	dec	r10
    2054:	bb 24       	eor	r11, r11
    2056:	aa 20       	and	r10, r10
    2058:	c9 f6       	brne	.-78     	; 0x200c <conv_brk+0xe4>
    205a:	02 c0       	rjmp	.+4      	; 0x2060 <conv_brk+0x138>
    205c:	bb 20       	and	r11, r11
    205e:	31 f4       	brne	.+12     	; 0x206c <conv_brk+0x144>
    2060:	01 15       	cp	r16, r1
    2062:	11 05       	cpc	r17, r1
    2064:	29 f0       	breq	.+10     	; 0x2070 <conv_brk+0x148>
    2066:	f8 01       	movw	r30, r16
    2068:	10 82       	st	Z, r1
    206a:	02 c0       	rjmp	.+4      	; 0x2070 <conv_brk+0x148>
    206c:	ee 24       	eor	r14, r14
    206e:	ff 24       	eor	r15, r15
    2070:	c7 01       	movw	r24, r14
    2072:	a0 96       	adiw	r28, 0x20	; 32
    2074:	ee e0       	ldi	r30, 0x0E	; 14
    2076:	0c 94 c4 0c 	jmp	0x1988	; 0x1988 <__epilogue_restores__+0x8>

0000207a <vfscanf>:
    207a:	a0 e0       	ldi	r26, 0x00	; 0
    207c:	b0 e0       	ldi	r27, 0x00	; 0
    207e:	e3 e4       	ldi	r30, 0x43	; 67
    2080:	f0 e1       	ldi	r31, 0x10	; 16
    2082:	0c 94 a8 0c 	jmp	0x1950	; 0x1950 <__prologue_saves__+0x8>
    2086:	5c 01       	movw	r10, r24
    2088:	6b 01       	movw	r12, r22
    208a:	3a 01       	movw	r6, r20
    208c:	fc 01       	movw	r30, r24
    208e:	17 82       	std	Z+7, r1	; 0x07
    2090:	16 82       	std	Z+6, r1	; 0x06
    2092:	88 24       	eor	r8, r8
    2094:	ea c0       	rjmp	.+468    	; 0x226a <vfscanf+0x1f0>
    2096:	81 2f       	mov	r24, r17
    2098:	90 e0       	ldi	r25, 0x00	; 0
    209a:	0e 94 4e 11 	call	0x229c	; 0x229c <isspace>
    209e:	89 2b       	or	r24, r25
    20a0:	21 f0       	breq	.+8      	; 0x20aa <vfscanf+0x30>
    20a2:	c5 01       	movw	r24, r10
    20a4:	0e 94 f3 0e 	call	0x1de6	; 0x1de6 <skip_spaces>
    20a8:	e0 c0       	rjmp	.+448    	; 0x226a <vfscanf+0x1f0>
    20aa:	15 32       	cpi	r17, 0x25	; 37
    20ac:	49 f4       	brne	.+18     	; 0x20c0 <vfscanf+0x46>
    20ae:	f6 01       	movw	r30, r12
    20b0:	f3 fc       	sbrc	r15, 3
    20b2:	65 91       	lpm	r22, Z+
    20b4:	f3 fe       	sbrs	r15, 3
    20b6:	61 91       	ld	r22, Z+
    20b8:	6f 01       	movw	r12, r30
    20ba:	65 32       	cpi	r22, 0x25	; 37
    20bc:	69 f4       	brne	.+26     	; 0x20d8 <vfscanf+0x5e>
    20be:	15 e2       	ldi	r17, 0x25	; 37
    20c0:	c5 01       	movw	r24, r10
    20c2:	0e 94 61 11 	call	0x22c2	; 0x22c2 <fgetc>
    20c6:	97 fd       	sbrc	r25, 7
    20c8:	dc c0       	rjmp	.+440    	; 0x2282 <vfscanf+0x208>
    20ca:	18 17       	cp	r17, r24
    20cc:	09 f4       	brne	.+2      	; 0x20d0 <vfscanf+0x56>
    20ce:	cd c0       	rjmp	.+410    	; 0x226a <vfscanf+0x1f0>
    20d0:	b5 01       	movw	r22, r10
    20d2:	0e 94 a3 11 	call	0x2346	; 0x2346 <ungetc>
    20d6:	da c0       	rjmp	.+436    	; 0x228c <vfscanf+0x212>
    20d8:	6a 32       	cpi	r22, 0x2A	; 42
    20da:	19 f0       	breq	.+6      	; 0x20e2 <vfscanf+0x68>
    20dc:	16 2f       	mov	r17, r22
    20de:	00 e0       	ldi	r16, 0x00	; 0
    20e0:	06 c0       	rjmp	.+12     	; 0x20ee <vfscanf+0x74>
    20e2:	f3 fc       	sbrc	r15, 3
    20e4:	15 91       	lpm	r17, Z+
    20e6:	f3 fe       	sbrs	r15, 3
    20e8:	11 91       	ld	r17, Z+
    20ea:	6f 01       	movw	r12, r30
    20ec:	01 e0       	ldi	r16, 0x01	; 1
    20ee:	99 24       	eor	r9, r9
    20f0:	0f c0       	rjmp	.+30     	; 0x2110 <vfscanf+0x96>
    20f2:	02 60       	ori	r16, 0x02	; 2
    20f4:	69 2d       	mov	r22, r9
    20f6:	70 e0       	ldi	r23, 0x00	; 0
    20f8:	80 e0       	ldi	r24, 0x00	; 0
    20fa:	90 e0       	ldi	r25, 0x00	; 0
    20fc:	40 e2       	ldi	r20, 0x20	; 32
    20fe:	0e 94 c5 0e 	call	0x1d8a	; 0x1d8a <mulacc>
    2102:	96 2e       	mov	r9, r22
    2104:	f6 01       	movw	r30, r12
    2106:	f3 fc       	sbrc	r15, 3
    2108:	15 91       	lpm	r17, Z+
    210a:	f3 fe       	sbrs	r15, 3
    210c:	11 91       	ld	r17, Z+
    210e:	6f 01       	movw	r12, r30
    2110:	21 2f       	mov	r18, r17
    2112:	20 53       	subi	r18, 0x30	; 48
    2114:	2a 30       	cpi	r18, 0x0A	; 10
    2116:	68 f3       	brcs	.-38     	; 0x20f2 <vfscanf+0x78>
    2118:	01 fd       	sbrc	r16, 1
    211a:	03 c0       	rjmp	.+6      	; 0x2122 <vfscanf+0xa8>
    211c:	99 24       	eor	r9, r9
    211e:	9a 94       	dec	r9
    2120:	03 c0       	rjmp	.+6      	; 0x2128 <vfscanf+0xae>
    2122:	99 20       	and	r9, r9
    2124:	09 f4       	brne	.+2      	; 0x2128 <vfscanf+0xae>
    2126:	b2 c0       	rjmp	.+356    	; 0x228c <vfscanf+0x212>
    2128:	18 36       	cpi	r17, 0x68	; 104
    212a:	21 f0       	breq	.+8      	; 0x2134 <vfscanf+0xba>
    212c:	1c 36       	cpi	r17, 0x6C	; 108
    212e:	99 f4       	brne	.+38     	; 0x2156 <vfscanf+0xdc>
    2130:	f6 01       	movw	r30, r12
    2132:	0b c0       	rjmp	.+22     	; 0x214a <vfscanf+0xd0>
    2134:	f6 01       	movw	r30, r12
    2136:	f3 fc       	sbrc	r15, 3
    2138:	65 91       	lpm	r22, Z+
    213a:	f3 fe       	sbrs	r15, 3
    213c:	61 91       	ld	r22, Z+
    213e:	68 36       	cpi	r22, 0x68	; 104
    2140:	19 f0       	breq	.+6      	; 0x2148 <vfscanf+0xce>
    2142:	6f 01       	movw	r12, r30
    2144:	16 2f       	mov	r17, r22
    2146:	07 c0       	rjmp	.+14     	; 0x2156 <vfscanf+0xdc>
    2148:	08 60       	ori	r16, 0x08	; 8
    214a:	04 60       	ori	r16, 0x04	; 4
    214c:	f3 fc       	sbrc	r15, 3
    214e:	15 91       	lpm	r17, Z+
    2150:	f3 fe       	sbrs	r15, 3
    2152:	11 91       	ld	r17, Z+
    2154:	6f 01       	movw	r12, r30
    2156:	11 23       	and	r17, r17
    2158:	09 f4       	brne	.+2      	; 0x215c <vfscanf+0xe2>
    215a:	98 c0       	rjmp	.+304    	; 0x228c <vfscanf+0x212>
    215c:	80 ef       	ldi	r24, 0xF0	; 240
    215e:	91 e0       	ldi	r25, 0x01	; 1
    2160:	61 2f       	mov	r22, r17
    2162:	70 e0       	ldi	r23, 0x00	; 0
    2164:	0e 94 56 11 	call	0x22ac	; 0x22ac <strchr_P>
    2168:	89 2b       	or	r24, r25
    216a:	09 f4       	brne	.+2      	; 0x216e <vfscanf+0xf4>
    216c:	8f c0       	rjmp	.+286    	; 0x228c <vfscanf+0x212>
    216e:	80 2f       	mov	r24, r16
    2170:	00 ff       	sbrs	r16, 0
    2172:	03 c0       	rjmp	.+6      	; 0x217a <vfscanf+0x100>
    2174:	ee 24       	eor	r14, r14
    2176:	ff 24       	eor	r15, r15
    2178:	07 c0       	rjmp	.+14     	; 0x2188 <vfscanf+0x10e>
    217a:	f3 01       	movw	r30, r6
    217c:	e0 80       	ld	r14, Z
    217e:	f1 80       	ldd	r15, Z+1	; 0x01
    2180:	22 e0       	ldi	r18, 0x02	; 2
    2182:	30 e0       	ldi	r19, 0x00	; 0
    2184:	62 0e       	add	r6, r18
    2186:	73 1e       	adc	r7, r19
    2188:	1e 36       	cpi	r17, 0x6E	; 110
    218a:	51 f4       	brne	.+20     	; 0x21a0 <vfscanf+0x126>
    218c:	f5 01       	movw	r30, r10
    218e:	46 81       	ldd	r20, Z+6	; 0x06
    2190:	57 81       	ldd	r21, Z+7	; 0x07
    2192:	60 e0       	ldi	r22, 0x00	; 0
    2194:	70 e0       	ldi	r23, 0x00	; 0
    2196:	c7 01       	movw	r24, r14
    2198:	20 2f       	mov	r18, r16
    219a:	0e 94 b9 0e 	call	0x1d72	; 0x1d72 <putval>
    219e:	65 c0       	rjmp	.+202    	; 0x226a <vfscanf+0x1f0>
    21a0:	13 36       	cpi	r17, 0x63	; 99
    21a2:	91 f4       	brne	.+36     	; 0x21c8 <vfscanf+0x14e>
    21a4:	81 fd       	sbrc	r24, 1
    21a6:	02 c0       	rjmp	.+4      	; 0x21ac <vfscanf+0x132>
    21a8:	99 24       	eor	r9, r9
    21aa:	93 94       	inc	r9
    21ac:	c5 01       	movw	r24, r10
    21ae:	0e 94 61 11 	call	0x22c2	; 0x22c2 <fgetc>
    21b2:	97 fd       	sbrc	r25, 7
    21b4:	66 c0       	rjmp	.+204    	; 0x2282 <vfscanf+0x208>
    21b6:	e1 14       	cp	r14, r1
    21b8:	f1 04       	cpc	r15, r1
    21ba:	19 f0       	breq	.+6      	; 0x21c2 <vfscanf+0x148>
    21bc:	f7 01       	movw	r30, r14
    21be:	81 93       	st	Z+, r24
    21c0:	7f 01       	movw	r14, r30
    21c2:	9a 94       	dec	r9
    21c4:	99 f7       	brne	.-26     	; 0x21ac <vfscanf+0x132>
    21c6:	4f c0       	rjmp	.+158    	; 0x2266 <vfscanf+0x1ec>
    21c8:	1b 35       	cpi	r17, 0x5B	; 91
    21ca:	59 f4       	brne	.+22     	; 0x21e2 <vfscanf+0x168>
    21cc:	c5 01       	movw	r24, r10
    21ce:	69 2d       	mov	r22, r9
    21d0:	a7 01       	movw	r20, r14
    21d2:	96 01       	movw	r18, r12
    21d4:	0e 94 94 0f 	call	0x1f28	; 0x1f28 <conv_brk>
    21d8:	6c 01       	movw	r12, r24
    21da:	00 97       	sbiw	r24, 0x00	; 0
    21dc:	09 f0       	breq	.+2      	; 0x21e0 <vfscanf+0x166>
    21de:	43 c0       	rjmp	.+134    	; 0x2266 <vfscanf+0x1ec>
    21e0:	3d c0       	rjmp	.+122    	; 0x225c <vfscanf+0x1e2>
    21e2:	c5 01       	movw	r24, r10
    21e4:	0e 94 f3 0e 	call	0x1de6	; 0x1de6 <skip_spaces>
    21e8:	97 fd       	sbrc	r25, 7
    21ea:	4b c0       	rjmp	.+150    	; 0x2282 <vfscanf+0x208>
    21ec:	1f 36       	cpi	r17, 0x6F	; 111
    21ee:	59 f1       	breq	.+86     	; 0x2246 <vfscanf+0x1cc>
    21f0:	10 37       	cpi	r17, 0x70	; 112
    21f2:	28 f4       	brcc	.+10     	; 0x21fe <vfscanf+0x184>
    21f4:	14 36       	cpi	r17, 0x64	; 100
    21f6:	29 f1       	breq	.+74     	; 0x2242 <vfscanf+0x1c8>
    21f8:	19 36       	cpi	r17, 0x69	; 105
    21fa:	39 f5       	brne	.+78     	; 0x224a <vfscanf+0x1d0>
    21fc:	27 c0       	rjmp	.+78     	; 0x224c <vfscanf+0x1d2>
    21fe:	13 37       	cpi	r17, 0x73	; 115
    2200:	19 f0       	breq	.+6      	; 0x2208 <vfscanf+0x18e>
    2202:	15 37       	cpi	r17, 0x75	; 117
    2204:	11 f5       	brne	.+68     	; 0x224a <vfscanf+0x1d0>
    2206:	1d c0       	rjmp	.+58     	; 0x2242 <vfscanf+0x1c8>
    2208:	c5 01       	movw	r24, r10
    220a:	0e 94 61 11 	call	0x22c2	; 0x22c2 <fgetc>
    220e:	ec 01       	movw	r28, r24
    2210:	97 fd       	sbrc	r25, 7
    2212:	11 c0       	rjmp	.+34     	; 0x2236 <vfscanf+0x1bc>
    2214:	0e 94 4e 11 	call	0x229c	; 0x229c <isspace>
    2218:	89 2b       	or	r24, r25
    221a:	29 f0       	breq	.+10     	; 0x2226 <vfscanf+0x1ac>
    221c:	ce 01       	movw	r24, r28
    221e:	b5 01       	movw	r22, r10
    2220:	0e 94 a3 11 	call	0x2346	; 0x2346 <ungetc>
    2224:	08 c0       	rjmp	.+16     	; 0x2236 <vfscanf+0x1bc>
    2226:	e1 14       	cp	r14, r1
    2228:	f1 04       	cpc	r15, r1
    222a:	19 f0       	breq	.+6      	; 0x2232 <vfscanf+0x1b8>
    222c:	f7 01       	movw	r30, r14
    222e:	c1 93       	st	Z+, r28
    2230:	7f 01       	movw	r14, r30
    2232:	9a 94       	dec	r9
    2234:	49 f7       	brne	.-46     	; 0x2208 <vfscanf+0x18e>
    2236:	e1 14       	cp	r14, r1
    2238:	f1 04       	cpc	r15, r1
    223a:	a9 f0       	breq	.+42     	; 0x2266 <vfscanf+0x1ec>
    223c:	f7 01       	movw	r30, r14
    223e:	10 82       	st	Z, r1
    2240:	12 c0       	rjmp	.+36     	; 0x2266 <vfscanf+0x1ec>
    2242:	00 62       	ori	r16, 0x20	; 32
    2244:	03 c0       	rjmp	.+6      	; 0x224c <vfscanf+0x1d2>
    2246:	00 61       	ori	r16, 0x10	; 16
    2248:	01 c0       	rjmp	.+2      	; 0x224c <vfscanf+0x1d2>
    224a:	00 64       	ori	r16, 0x40	; 64
    224c:	c5 01       	movw	r24, r10
    224e:	69 2d       	mov	r22, r9
    2250:	a7 01       	movw	r20, r14
    2252:	20 2f       	mov	r18, r16
    2254:	0e 94 0c 0f 	call	0x1e18	; 0x1e18 <conv_int>
    2258:	88 23       	and	r24, r24
    225a:	29 f4       	brne	.+10     	; 0x2266 <vfscanf+0x1ec>
    225c:	f5 01       	movw	r30, r10
    225e:	83 81       	ldd	r24, Z+3	; 0x03
    2260:	80 73       	andi	r24, 0x30	; 48
    2262:	79 f4       	brne	.+30     	; 0x2282 <vfscanf+0x208>
    2264:	13 c0       	rjmp	.+38     	; 0x228c <vfscanf+0x212>
    2266:	00 ff       	sbrs	r16, 0
    2268:	83 94       	inc	r8
    226a:	f5 01       	movw	r30, r10
    226c:	f3 80       	ldd	r15, Z+3	; 0x03
    226e:	f6 01       	movw	r30, r12
    2270:	f3 fc       	sbrc	r15, 3
    2272:	15 91       	lpm	r17, Z+
    2274:	f3 fe       	sbrs	r15, 3
    2276:	11 91       	ld	r17, Z+
    2278:	6f 01       	movw	r12, r30
    227a:	11 23       	and	r17, r17
    227c:	09 f0       	breq	.+2      	; 0x2280 <vfscanf+0x206>
    227e:	0b cf       	rjmp	.-490    	; 0x2096 <vfscanf+0x1c>
    2280:	05 c0       	rjmp	.+10     	; 0x228c <vfscanf+0x212>
    2282:	88 20       	and	r8, r8
    2284:	19 f4       	brne	.+6      	; 0x228c <vfscanf+0x212>
    2286:	2f ef       	ldi	r18, 0xFF	; 255
    2288:	3f ef       	ldi	r19, 0xFF	; 255
    228a:	02 c0       	rjmp	.+4      	; 0x2290 <vfscanf+0x216>
    228c:	28 2d       	mov	r18, r8
    228e:	30 e0       	ldi	r19, 0x00	; 0
    2290:	c9 01       	movw	r24, r18
    2292:	cd b7       	in	r28, 0x3d	; 61
    2294:	de b7       	in	r29, 0x3e	; 62
    2296:	ee e0       	ldi	r30, 0x0E	; 14
    2298:	0c 94 c4 0c 	jmp	0x1988	; 0x1988 <__epilogue_restores__+0x8>

0000229c <isspace>:
    229c:	91 11       	cpse	r25, r1
    229e:	6d c0       	rjmp	.+218    	; 0x237a <__ctype_isfalse>
    22a0:	80 32       	cpi	r24, 0x20	; 32
    22a2:	19 f0       	breq	.+6      	; 0x22aa <isspace+0xe>
    22a4:	89 50       	subi	r24, 0x09	; 9
    22a6:	85 50       	subi	r24, 0x05	; 5
    22a8:	d0 f7       	brcc	.-12     	; 0x229e <isspace+0x2>
    22aa:	08 95       	ret

000022ac <strchr_P>:
    22ac:	fc 01       	movw	r30, r24
    22ae:	05 90       	lpm	r0, Z+
    22b0:	06 16       	cp	r0, r22
    22b2:	21 f0       	breq	.+8      	; 0x22bc <strchr_P+0x10>
    22b4:	00 20       	and	r0, r0
    22b6:	d9 f7       	brne	.-10     	; 0x22ae <strchr_P+0x2>
    22b8:	c0 01       	movw	r24, r0
    22ba:	08 95       	ret
    22bc:	31 97       	sbiw	r30, 0x01	; 1
    22be:	cf 01       	movw	r24, r30
    22c0:	08 95       	ret

000022c2 <fgetc>:
    22c2:	cf 93       	push	r28
    22c4:	df 93       	push	r29
    22c6:	ec 01       	movw	r28, r24
    22c8:	4b 81       	ldd	r20, Y+3	; 0x03
    22ca:	40 ff       	sbrs	r20, 0
    22cc:	1a c0       	rjmp	.+52     	; 0x2302 <fgetc+0x40>
    22ce:	46 ff       	sbrs	r20, 6
    22d0:	0a c0       	rjmp	.+20     	; 0x22e6 <fgetc+0x24>
    22d2:	4f 7b       	andi	r20, 0xBF	; 191
    22d4:	4b 83       	std	Y+3, r20	; 0x03
    22d6:	8e 81       	ldd	r24, Y+6	; 0x06
    22d8:	9f 81       	ldd	r25, Y+7	; 0x07
    22da:	01 96       	adiw	r24, 0x01	; 1
    22dc:	9f 83       	std	Y+7, r25	; 0x07
    22de:	8e 83       	std	Y+6, r24	; 0x06
    22e0:	8a 81       	ldd	r24, Y+2	; 0x02
    22e2:	28 2f       	mov	r18, r24
    22e4:	2b c0       	rjmp	.+86     	; 0x233c <fgetc+0x7a>
    22e6:	42 ff       	sbrs	r20, 2
    22e8:	13 c0       	rjmp	.+38     	; 0x2310 <fgetc+0x4e>
    22ea:	e8 81       	ld	r30, Y
    22ec:	f9 81       	ldd	r31, Y+1	; 0x01
    22ee:	80 81       	ld	r24, Z
    22f0:	28 2f       	mov	r18, r24
    22f2:	33 27       	eor	r19, r19
    22f4:	27 fd       	sbrc	r18, 7
    22f6:	30 95       	com	r19
    22f8:	21 15       	cp	r18, r1
    22fa:	31 05       	cpc	r19, r1
    22fc:	29 f4       	brne	.+10     	; 0x2308 <fgetc+0x46>
    22fe:	40 62       	ori	r20, 0x20	; 32
    2300:	4b 83       	std	Y+3, r20	; 0x03
    2302:	2f ef       	ldi	r18, 0xFF	; 255
    2304:	3f ef       	ldi	r19, 0xFF	; 255
    2306:	1b c0       	rjmp	.+54     	; 0x233e <fgetc+0x7c>
    2308:	31 96       	adiw	r30, 0x01	; 1
    230a:	f9 83       	std	Y+1, r31	; 0x01
    230c:	e8 83       	st	Y, r30
    230e:	11 c0       	rjmp	.+34     	; 0x2332 <fgetc+0x70>
    2310:	ea 85       	ldd	r30, Y+10	; 0x0a
    2312:	fb 85       	ldd	r31, Y+11	; 0x0b
    2314:	ce 01       	movw	r24, r28
    2316:	09 95       	icall
    2318:	9c 01       	movw	r18, r24
    231a:	97 ff       	sbrs	r25, 7
    231c:	0a c0       	rjmp	.+20     	; 0x2332 <fgetc+0x70>
    231e:	9b 81       	ldd	r25, Y+3	; 0x03
    2320:	2f 5f       	subi	r18, 0xFF	; 255
    2322:	3f 4f       	sbci	r19, 0xFF	; 255
    2324:	11 f0       	breq	.+4      	; 0x232a <fgetc+0x68>
    2326:	80 e2       	ldi	r24, 0x20	; 32
    2328:	01 c0       	rjmp	.+2      	; 0x232c <fgetc+0x6a>
    232a:	80 e1       	ldi	r24, 0x10	; 16
    232c:	89 2b       	or	r24, r25
    232e:	8b 83       	std	Y+3, r24	; 0x03
    2330:	e8 cf       	rjmp	.-48     	; 0x2302 <fgetc+0x40>
    2332:	8e 81       	ldd	r24, Y+6	; 0x06
    2334:	9f 81       	ldd	r25, Y+7	; 0x07
    2336:	01 96       	adiw	r24, 0x01	; 1
    2338:	9f 83       	std	Y+7, r25	; 0x07
    233a:	8e 83       	std	Y+6, r24	; 0x06
    233c:	30 e0       	ldi	r19, 0x00	; 0
    233e:	c9 01       	movw	r24, r18
    2340:	df 91       	pop	r29
    2342:	cf 91       	pop	r28
    2344:	08 95       	ret

00002346 <ungetc>:
    2346:	9c 01       	movw	r18, r24
    2348:	fb 01       	movw	r30, r22
    234a:	83 81       	ldd	r24, Z+3	; 0x03
    234c:	80 ff       	sbrs	r24, 0
    234e:	11 c0       	rjmp	.+34     	; 0x2372 <ungetc+0x2c>
    2350:	86 fd       	sbrc	r24, 6
    2352:	0f c0       	rjmp	.+30     	; 0x2372 <ungetc+0x2c>
    2354:	9f ef       	ldi	r25, 0xFF	; 255
    2356:	2f 3f       	cpi	r18, 0xFF	; 255
    2358:	39 07       	cpc	r19, r25
    235a:	59 f0       	breq	.+22     	; 0x2372 <ungetc+0x2c>
    235c:	22 83       	std	Z+2, r18	; 0x02
    235e:	80 64       	ori	r24, 0x40	; 64
    2360:	8f 7d       	andi	r24, 0xDF	; 223
    2362:	83 83       	std	Z+3, r24	; 0x03
    2364:	86 81       	ldd	r24, Z+6	; 0x06
    2366:	97 81       	ldd	r25, Z+7	; 0x07
    2368:	01 97       	sbiw	r24, 0x01	; 1
    236a:	97 83       	std	Z+7, r25	; 0x07
    236c:	86 83       	std	Z+6, r24	; 0x06
    236e:	30 e0       	ldi	r19, 0x00	; 0
    2370:	02 c0       	rjmp	.+4      	; 0x2376 <ungetc+0x30>
    2372:	2f ef       	ldi	r18, 0xFF	; 255
    2374:	3f ef       	ldi	r19, 0xFF	; 255
    2376:	c9 01       	movw	r24, r18
    2378:	08 95       	ret

0000237a <__ctype_isfalse>:
    237a:	99 27       	eor	r25, r25
    237c:	88 27       	eor	r24, r24

0000237e <__ctype_istrue>:
    237e:	08 95       	ret

00002380 <_exit>:
    2380:	f8 94       	cli

00002382 <__stop_program>:
    2382:	ff cf       	rjmp	.-2      	; 0x2382 <__stop_program>
